SF:D:\github\rs\projgeom-rs\src\ck_plane.rs
FN:238,_RNvXs1_NtCs81zHBbp1AWX_11projgeom_rs13euclid_objectNtNtB7_9pg_object10EuclidLineINtNtB7_8ck_plane25CayleyKleinPlanePrimitiveNtBP_11EuclidPointE4perpB7_
FN:238,_RNvXs_NtCs81zHBbp1AWX_11projgeom_rs10ell_objectNtNtB6_9pg_object12EllipticLineINtNtB6_8ck_plane25CayleyKleinPlanePrimitiveNtBL_13EllipticPointE4perpCsfZxzWFfcmPC_11integration
FN:123,_RINvNtCs81zHBbp1AWX_11projgeom_rs8ck_plane11orthocenterNtNtB4_9pg_object13EllipticPointNtBT_12EllipticLineECsfZxzWFfcmPC_11integration
FN:87,_RINvNtCs81zHBbp1AWX_11projgeom_rs8ck_plane8altitudeNtNtB4_9pg_object13EllipticPointNtBP_12EllipticLineECsfZxzWFfcmPC_11integration
FN:123,_RINvNtCs81zHBbp1AWX_11projgeom_rs8ck_plane11orthocenterNtNtB4_9pg_object10PerspPointNtBT_9PerspLineECsc7RMaTNwWKe_3lib
FN:123,_RINvNtCs81zHBbp1AWX_11projgeom_rs8ck_plane11orthocenterNtNtB4_9pg_object11EuclidPointNtBT_10EuclidLineECsc7RMaTNwWKe_3lib
FN:123,_RINvNtCs81zHBbp1AWX_11projgeom_rs8ck_plane11orthocenterNtNtB4_9pg_object12EllipticLineNtBT_13EllipticPointECsc7RMaTNwWKe_3lib
FN:123,_RINvNtCs81zHBbp1AWX_11projgeom_rs8ck_plane11orthocenterNtNtB4_9pg_object13EllipticPointNtBT_12EllipticLineECsc7RMaTNwWKe_3lib
FN:123,_RINvNtCs81zHBbp1AWX_11projgeom_rs8ck_plane11orthocenterNtNtB4_9pg_object14HyperbolicLineNtBT_15HyperbolicPointECsc7RMaTNwWKe_3lib
FN:123,_RINvNtCs81zHBbp1AWX_11projgeom_rs8ck_plane11orthocenterNtNtB4_9pg_object15HyperbolicPointNtBT_14HyperbolicLineECsc7RMaTNwWKe_3lib
FN:123,_RINvNtCs81zHBbp1AWX_11projgeom_rs8ck_plane11orthocenterNtNtB4_9pg_object8MyCKLineNtBT_9MyCKPointECsc7RMaTNwWKe_3lib
FN:123,_RINvNtCs81zHBbp1AWX_11projgeom_rs8ck_plane11orthocenterNtNtB4_9pg_object9MyCKPointNtBT_8MyCKLineECsc7RMaTNwWKe_3lib
FN:166,_RINvNtCs81zHBbp1AWX_11projgeom_rs8ck_plane12tri_altitudeNtNtB4_9pg_object10PerspPointNtBU_9PerspLineECsc7RMaTNwWKe_3lib
FN:166,_RINvNtCs81zHBbp1AWX_11projgeom_rs8ck_plane12tri_altitudeNtNtB4_9pg_object11EuclidPointNtBU_10EuclidLineECsc7RMaTNwWKe_3lib
FN:166,_RINvNtCs81zHBbp1AWX_11projgeom_rs8ck_plane12tri_altitudeNtNtB4_9pg_object12EllipticLineNtBU_13EllipticPointECsc7RMaTNwWKe_3lib
FN:166,_RINvNtCs81zHBbp1AWX_11projgeom_rs8ck_plane12tri_altitudeNtNtB4_9pg_object13EllipticPointNtBU_12EllipticLineECsc7RMaTNwWKe_3lib
FN:166,_RINvNtCs81zHBbp1AWX_11projgeom_rs8ck_plane12tri_altitudeNtNtB4_9pg_object14HyperbolicLineNtBU_15HyperbolicPointECsc7RMaTNwWKe_3lib
FN:166,_RINvNtCs81zHBbp1AWX_11projgeom_rs8ck_plane12tri_altitudeNtNtB4_9pg_object15HyperbolicPointNtBU_14HyperbolicLineECsc7RMaTNwWKe_3lib
FN:166,_RINvNtCs81zHBbp1AWX_11projgeom_rs8ck_plane12tri_altitudeNtNtB4_9pg_object8MyCKLineNtBU_9MyCKPointECsc7RMaTNwWKe_3lib
FN:166,_RINvNtCs81zHBbp1AWX_11projgeom_rs8ck_plane12tri_altitudeNtNtB4_9pg_object9MyCKPointNtBU_8MyCKLineECsc7RMaTNwWKe_3lib
FN:53,_RINvNtCs81zHBbp1AWX_11projgeom_rs8ck_plane16is_perpendicularNtNtB4_9pg_object10PerspPointNtBY_9PerspLineECsc7RMaTNwWKe_3lib
FN:53,_RINvNtCs81zHBbp1AWX_11projgeom_rs8ck_plane16is_perpendicularNtNtB4_9pg_object11EuclidPointNtBY_10EuclidLineECsc7RMaTNwWKe_3lib
FN:53,_RINvNtCs81zHBbp1AWX_11projgeom_rs8ck_plane16is_perpendicularNtNtB4_9pg_object12EllipticLineNtBY_13EllipticPointECsc7RMaTNwWKe_3lib
FN:53,_RINvNtCs81zHBbp1AWX_11projgeom_rs8ck_plane16is_perpendicularNtNtB4_9pg_object13EllipticPointNtBY_12EllipticLineECsc7RMaTNwWKe_3lib
FN:53,_RINvNtCs81zHBbp1AWX_11projgeom_rs8ck_plane16is_perpendicularNtNtB4_9pg_object14HyperbolicLineNtBY_15HyperbolicPointECsc7RMaTNwWKe_3lib
FN:53,_RINvNtCs81zHBbp1AWX_11projgeom_rs8ck_plane16is_perpendicularNtNtB4_9pg_object15HyperbolicPointNtBY_14HyperbolicLineECsc7RMaTNwWKe_3lib
FN:53,_RINvNtCs81zHBbp1AWX_11projgeom_rs8ck_plane16is_perpendicularNtNtB4_9pg_object8MyCKLineNtBY_9MyCKPointECsc7RMaTNwWKe_3lib
FN:53,_RINvNtCs81zHBbp1AWX_11projgeom_rs8ck_plane16is_perpendicularNtNtB4_9pg_object9MyCKPointNtBY_8MyCKLineECsc7RMaTNwWKe_3lib
FN:216,_RINvNtCs81zHBbp1AWX_11projgeom_rs8ck_plane7reflectNtNtB4_9pg_object11EuclidPointNtBO_10EuclidLinexECsc7RMaTNwWKe_3lib
FN:87,_RINvNtCs81zHBbp1AWX_11projgeom_rs8ck_plane8altitudeNtNtB4_9pg_object10PerspPointNtBP_9PerspLineECsc7RMaTNwWKe_3lib
FN:87,_RINvNtCs81zHBbp1AWX_11projgeom_rs8ck_plane8altitudeNtNtB4_9pg_object11EuclidPointNtBP_10EuclidLineECsc7RMaTNwWKe_3lib
FN:87,_RINvNtCs81zHBbp1AWX_11projgeom_rs8ck_plane8altitudeNtNtB4_9pg_object12EllipticLineNtBP_13EllipticPointECsc7RMaTNwWKe_3lib
FN:87,_RINvNtCs81zHBbp1AWX_11projgeom_rs8ck_plane8altitudeNtNtB4_9pg_object13EllipticPointNtBP_12EllipticLineECsc7RMaTNwWKe_3lib
FN:87,_RINvNtCs81zHBbp1AWX_11projgeom_rs8ck_plane8altitudeNtNtB4_9pg_object14HyperbolicLineNtBP_15HyperbolicPointECsc7RMaTNwWKe_3lib
FN:87,_RINvNtCs81zHBbp1AWX_11projgeom_rs8ck_plane8altitudeNtNtB4_9pg_object15HyperbolicPointNtBP_14HyperbolicLineECsc7RMaTNwWKe_3lib
FN:87,_RINvNtCs81zHBbp1AWX_11projgeom_rs8ck_plane8altitudeNtNtB4_9pg_object8MyCKLineNtBP_9MyCKPointECsc7RMaTNwWKe_3lib
FN:87,_RINvNtCs81zHBbp1AWX_11projgeom_rs8ck_plane8altitudeNtNtB4_9pg_object9MyCKPointNtBP_8MyCKLineECsc7RMaTNwWKe_3lib
FN:231,_RNvXNtCs81zHBbp1AWX_11projgeom_rs10ell_objectNtNtB4_9pg_object13EllipticPointINtNtB4_8ck_plane25CayleyKleinPlanePrimitiveNtBJ_12EllipticLineE4perpCsc7RMaTNwWKe_3lib
FN:231,_RNvXNtCs81zHBbp1AWX_11projgeom_rs10hyp_objectNtNtB4_9pg_object15HyperbolicPointINtNtB4_8ck_plane25CayleyKleinPlanePrimitiveNtBJ_14HyperbolicLineE4perpCsc7RMaTNwWKe_3lib
FN:231,_RNvXNtCs81zHBbp1AWX_11projgeom_rs11myck_objectNtNtB4_9pg_object9MyCKPointINtNtB4_8ck_plane25CayleyKleinPlanePrimitiveNtBK_8MyCKLineE4perpCsc7RMaTNwWKe_3lib
FN:231,_RNvXs0_NtCs81zHBbp1AWX_11projgeom_rs13euclid_objectNtNtB7_9pg_object11EuclidPointINtNtB7_8ck_plane25CayleyKleinPlanePrimitiveNtBP_10EuclidLineE4perpCsc7RMaTNwWKe_3lib
FN:238,_RNvXs1_NtCs81zHBbp1AWX_11projgeom_rs12persp_objectNtNtB7_9pg_object9PerspLineINtNtB7_8ck_plane25CayleyKleinPlanePrimitiveNtBO_10PerspPointE4perpCsc7RMaTNwWKe_3lib
FN:238,_RNvXs1_NtCs81zHBbp1AWX_11projgeom_rs13euclid_objectNtNtB7_9pg_object10EuclidLineINtNtB7_8ck_plane25CayleyKleinPlanePrimitiveNtBP_11EuclidPointE4perpCsc7RMaTNwWKe_3lib
FN:238,_RNvXs_NtCs81zHBbp1AWX_11projgeom_rs10ell_objectNtNtB6_9pg_object12EllipticLineINtNtB6_8ck_plane25CayleyKleinPlanePrimitiveNtBL_13EllipticPointE4perpCsc7RMaTNwWKe_3lib
FN:238,_RNvXs_NtCs81zHBbp1AWX_11projgeom_rs10hyp_objectNtNtB6_9pg_object14HyperbolicLineINtNtB6_8ck_plane25CayleyKleinPlanePrimitiveNtBL_15HyperbolicPointE4perpCsc7RMaTNwWKe_3lib
FN:238,_RNvXs_NtCs81zHBbp1AWX_11projgeom_rs11myck_objectNtNtB6_9pg_object8MyCKLineINtNtB6_8ck_plane25CayleyKleinPlanePrimitiveNtBM_9MyCKPointE4perpCsc7RMaTNwWKe_3lib
FN:123,_RINvNtCskeUPLh1mzg6_11projgeom_rs8ck_plane11orthocenterppEB4_
FN:166,_RINvNtCskeUPLh1mzg6_11projgeom_rs8ck_plane12tri_altitudeppEB4_
FN:53,_RINvNtCskeUPLh1mzg6_11projgeom_rs8ck_plane16is_perpendicularppEB4_
FN:216,_RINvNtCskeUPLh1mzg6_11projgeom_rs8ck_plane7reflectpppEB4_
FN:87,_RINvNtCskeUPLh1mzg6_11projgeom_rs8ck_plane8altitudeppEB4_
FN:231,_RNvXNtCskeUPLh1mzg6_11projgeom_rs10ell_objectNtNtB4_9pg_object13EllipticPointINtNtB4_8ck_plane25CayleyKleinPlanePrimitiveNtBJ_12EllipticLineE4perpB4_
FN:231,_RNvXNtCskeUPLh1mzg6_11projgeom_rs10hyp_objectNtNtB4_9pg_object15HyperbolicPointINtNtB4_8ck_plane25CayleyKleinPlanePrimitiveNtBJ_14HyperbolicLineE4perpB4_
FN:231,_RNvXNtCskeUPLh1mzg6_11projgeom_rs11myck_objectNtNtB4_9pg_object9MyCKPointINtNtB4_8ck_plane25CayleyKleinPlanePrimitiveNtBK_8MyCKLineE4perpB4_
FN:231,_RNvXs0_NtCskeUPLh1mzg6_11projgeom_rs12persp_objectNtNtB7_9pg_object10PerspPointINtNtB7_8ck_plane25CayleyKleinPlanePrimitiveNtBO_9PerspLineE4perpB7_
FN:231,_RNvXs0_NtCskeUPLh1mzg6_11projgeom_rs13euclid_objectNtNtB7_9pg_object11EuclidPointINtNtB7_8ck_plane25CayleyKleinPlanePrimitiveNtBP_10EuclidLineE4perpB7_
FN:238,_RNvXs1_NtCskeUPLh1mzg6_11projgeom_rs12persp_objectNtNtB7_9pg_object9PerspLineINtNtB7_8ck_plane25CayleyKleinPlanePrimitiveNtBO_10PerspPointE4perpB7_
FN:238,_RNvXs_NtCskeUPLh1mzg6_11projgeom_rs10ell_objectNtNtB6_9pg_object12EllipticLineINtNtB6_8ck_plane25CayleyKleinPlanePrimitiveNtBL_13EllipticPointE4perpB6_
FN:238,_RNvXs_NtCskeUPLh1mzg6_11projgeom_rs10hyp_objectNtNtB6_9pg_object14HyperbolicLineINtNtB6_8ck_plane25CayleyKleinPlanePrimitiveNtBL_15HyperbolicPointE4perpB6_
FN:238,_RNvXs_NtCskeUPLh1mzg6_11projgeom_rs11myck_objectNtNtB6_9pg_object8MyCKLineINtNtB6_8ck_plane25CayleyKleinPlanePrimitiveNtBM_9MyCKPointE4perpB6_
FN:238,_RNvXs1_NtCskeUPLh1mzg6_11projgeom_rs13euclid_objectNtNtB7_9pg_object10EuclidLineINtNtB7_8ck_plane25CayleyKleinPlanePrimitiveNtBP_11EuclidPointE4perpB7_
FNDA:0,_RNvXs1_NtCs81zHBbp1AWX_11projgeom_rs13euclid_objectNtNtB7_9pg_object10EuclidLineINtNtB7_8ck_plane25CayleyKleinPlanePrimitiveNtBP_11EuclidPointE4perpB7_
FNDA:4,_RNvXs_NtCs81zHBbp1AWX_11projgeom_rs10ell_objectNtNtB6_9pg_object12EllipticLineINtNtB6_8ck_plane25CayleyKleinPlanePrimitiveNtBL_13EllipticPointE4perpCsfZxzWFfcmPC_11integration
FNDA:2,_RINvNtCs81zHBbp1AWX_11projgeom_rs8ck_plane11orthocenterNtNtB4_9pg_object13EllipticPointNtBT_12EllipticLineECsfZxzWFfcmPC_11integration
FNDA:4,_RINvNtCs81zHBbp1AWX_11projgeom_rs8ck_plane8altitudeNtNtB4_9pg_object13EllipticPointNtBP_12EllipticLineECsfZxzWFfcmPC_11integration
FNDA:2,_RINvNtCs81zHBbp1AWX_11projgeom_rs8ck_plane11orthocenterNtNtB4_9pg_object10PerspPointNtBT_9PerspLineECsc7RMaTNwWKe_3lib
FNDA:2,_RINvNtCs81zHBbp1AWX_11projgeom_rs8ck_plane11orthocenterNtNtB4_9pg_object11EuclidPointNtBT_10EuclidLineECsc7RMaTNwWKe_3lib
FNDA:2,_RINvNtCs81zHBbp1AWX_11projgeom_rs8ck_plane11orthocenterNtNtB4_9pg_object12EllipticLineNtBT_13EllipticPointECsc7RMaTNwWKe_3lib
FNDA:202,_RINvNtCs81zHBbp1AWX_11projgeom_rs8ck_plane11orthocenterNtNtB4_9pg_object13EllipticPointNtBT_12EllipticLineECsc7RMaTNwWKe_3lib
FNDA:2,_RINvNtCs81zHBbp1AWX_11projgeom_rs8ck_plane11orthocenterNtNtB4_9pg_object14HyperbolicLineNtBT_15HyperbolicPointECsc7RMaTNwWKe_3lib
FNDA:2,_RINvNtCs81zHBbp1AWX_11projgeom_rs8ck_plane11orthocenterNtNtB4_9pg_object15HyperbolicPointNtBT_14HyperbolicLineECsc7RMaTNwWKe_3lib
FNDA:2,_RINvNtCs81zHBbp1AWX_11projgeom_rs8ck_plane11orthocenterNtNtB4_9pg_object8MyCKLineNtBT_9MyCKPointECsc7RMaTNwWKe_3lib
FNDA:2,_RINvNtCs81zHBbp1AWX_11projgeom_rs8ck_plane11orthocenterNtNtB4_9pg_object9MyCKPointNtBT_8MyCKLineECsc7RMaTNwWKe_3lib
FNDA:2,_RINvNtCs81zHBbp1AWX_11projgeom_rs8ck_plane12tri_altitudeNtNtB4_9pg_object10PerspPointNtBU_9PerspLineECsc7RMaTNwWKe_3lib
FNDA:202,_RINvNtCs81zHBbp1AWX_11projgeom_rs8ck_plane12tri_altitudeNtNtB4_9pg_object11EuclidPointNtBU_10EuclidLineECsc7RMaTNwWKe_3lib
FNDA:2,_RINvNtCs81zHBbp1AWX_11projgeom_rs8ck_plane12tri_altitudeNtNtB4_9pg_object12EllipticLineNtBU_13EllipticPointECsc7RMaTNwWKe_3lib
FNDA:202,_RINvNtCs81zHBbp1AWX_11projgeom_rs8ck_plane12tri_altitudeNtNtB4_9pg_object13EllipticPointNtBU_12EllipticLineECsc7RMaTNwWKe_3lib
FNDA:2,_RINvNtCs81zHBbp1AWX_11projgeom_rs8ck_plane12tri_altitudeNtNtB4_9pg_object14HyperbolicLineNtBU_15HyperbolicPointECsc7RMaTNwWKe_3lib
FNDA:2,_RINvNtCs81zHBbp1AWX_11projgeom_rs8ck_plane12tri_altitudeNtNtB4_9pg_object15HyperbolicPointNtBU_14HyperbolicLineECsc7RMaTNwWKe_3lib
FNDA:2,_RINvNtCs81zHBbp1AWX_11projgeom_rs8ck_plane12tri_altitudeNtNtB4_9pg_object8MyCKLineNtBU_9MyCKPointECsc7RMaTNwWKe_3lib
FNDA:2,_RINvNtCs81zHBbp1AWX_11projgeom_rs8ck_plane12tri_altitudeNtNtB4_9pg_object9MyCKPointNtBU_8MyCKLineECsc7RMaTNwWKe_3lib
FNDA:2,_RINvNtCs81zHBbp1AWX_11projgeom_rs8ck_plane16is_perpendicularNtNtB4_9pg_object10PerspPointNtBY_9PerspLineECsc7RMaTNwWKe_3lib
FNDA:602,_RINvNtCs81zHBbp1AWX_11projgeom_rs8ck_plane16is_perpendicularNtNtB4_9pg_object11EuclidPointNtBY_10EuclidLineECsc7RMaTNwWKe_3lib
FNDA:2,_RINvNtCs81zHBbp1AWX_11projgeom_rs8ck_plane16is_perpendicularNtNtB4_9pg_object12EllipticLineNtBY_13EllipticPointECsc7RMaTNwWKe_3lib
FNDA:2,_RINvNtCs81zHBbp1AWX_11projgeom_rs8ck_plane16is_perpendicularNtNtB4_9pg_object13EllipticPointNtBY_12EllipticLineECsc7RMaTNwWKe_3lib
FNDA:2,_RINvNtCs81zHBbp1AWX_11projgeom_rs8ck_plane16is_perpendicularNtNtB4_9pg_object14HyperbolicLineNtBY_15HyperbolicPointECsc7RMaTNwWKe_3lib
FNDA:2,_RINvNtCs81zHBbp1AWX_11projgeom_rs8ck_plane16is_perpendicularNtNtB4_9pg_object15HyperbolicPointNtBY_14HyperbolicLineECsc7RMaTNwWKe_3lib
FNDA:2,_RINvNtCs81zHBbp1AWX_11projgeom_rs8ck_plane16is_perpendicularNtNtB4_9pg_object8MyCKLineNtBY_9MyCKPointECsc7RMaTNwWKe_3lib
FNDA:2,_RINvNtCs81zHBbp1AWX_11projgeom_rs8ck_plane16is_perpendicularNtNtB4_9pg_object9MyCKPointNtBY_8MyCKLineECsc7RMaTNwWKe_3lib
FNDA:400,_RINvNtCs81zHBbp1AWX_11projgeom_rs8ck_plane7reflectNtNtB4_9pg_object11EuclidPointNtBO_10EuclidLinexECsc7RMaTNwWKe_3lib
FNDA:10,_RINvNtCs81zHBbp1AWX_11projgeom_rs8ck_plane8altitudeNtNtB4_9pg_object10PerspPointNtBP_9PerspLineECsc7RMaTNwWKe_3lib
FNDA:610,_RINvNtCs81zHBbp1AWX_11projgeom_rs8ck_plane8altitudeNtNtB4_9pg_object11EuclidPointNtBP_10EuclidLineECsc7RMaTNwWKe_3lib
FNDA:10,_RINvNtCs81zHBbp1AWX_11projgeom_rs8ck_plane8altitudeNtNtB4_9pg_object12EllipticLineNtBP_13EllipticPointECsc7RMaTNwWKe_3lib
FNDA:1010,_RINvNtCs81zHBbp1AWX_11projgeom_rs8ck_plane8altitudeNtNtB4_9pg_object13EllipticPointNtBP_12EllipticLineECsc7RMaTNwWKe_3lib
FNDA:10,_RINvNtCs81zHBbp1AWX_11projgeom_rs8ck_plane8altitudeNtNtB4_9pg_object14HyperbolicLineNtBP_15HyperbolicPointECsc7RMaTNwWKe_3lib
FNDA:10,_RINvNtCs81zHBbp1AWX_11projgeom_rs8ck_plane8altitudeNtNtB4_9pg_object15HyperbolicPointNtBP_14HyperbolicLineECsc7RMaTNwWKe_3lib
FNDA:10,_RINvNtCs81zHBbp1AWX_11projgeom_rs8ck_plane8altitudeNtNtB4_9pg_object8MyCKLineNtBP_9MyCKPointECsc7RMaTNwWKe_3lib
FNDA:10,_RINvNtCs81zHBbp1AWX_11projgeom_rs8ck_plane8altitudeNtNtB4_9pg_object9MyCKPointNtBP_8MyCKLineECsc7RMaTNwWKe_3lib
FNDA:212,_RNvXNtCs81zHBbp1AWX_11projgeom_rs10ell_objectNtNtB4_9pg_object13EllipticPointINtNtB4_8ck_plane25CayleyKleinPlanePrimitiveNtBJ_12EllipticLineE4perpCsc7RMaTNwWKe_3lib
FNDA:212,_RNvXNtCs81zHBbp1AWX_11projgeom_rs10hyp_objectNtNtB4_9pg_object15HyperbolicPointINtNtB4_8ck_plane25CayleyKleinPlanePrimitiveNtBJ_14HyperbolicLineE4perpCsc7RMaTNwWKe_3lib
FNDA:212,_RNvXNtCs81zHBbp1AWX_11projgeom_rs11myck_objectNtNtB4_9pg_object9MyCKPointINtNtB4_8ck_plane25CayleyKleinPlanePrimitiveNtBK_8MyCKLineE4perpCsc7RMaTNwWKe_3lib
FNDA:200,_RNvXs0_NtCs81zHBbp1AWX_11projgeom_rs13euclid_objectNtNtB7_9pg_object11EuclidPointINtNtB7_8ck_plane25CayleyKleinPlanePrimitiveNtBP_10EuclidLineE4perpCsc7RMaTNwWKe_3lib
FNDA:12,_RNvXs1_NtCs81zHBbp1AWX_11projgeom_rs12persp_objectNtNtB7_9pg_object9PerspLineINtNtB7_8ck_plane25CayleyKleinPlanePrimitiveNtBO_10PerspPointE4perpCsc7RMaTNwWKe_3lib
FNDA:1612,_RNvXs1_NtCs81zHBbp1AWX_11projgeom_rs13euclid_objectNtNtB7_9pg_object10EuclidLineINtNtB7_8ck_plane25CayleyKleinPlanePrimitiveNtBP_11EuclidPointE4perpCsc7RMaTNwWKe_3lib
FNDA:1212,_RNvXs_NtCs81zHBbp1AWX_11projgeom_rs10ell_objectNtNtB6_9pg_object12EllipticLineINtNtB6_8ck_plane25CayleyKleinPlanePrimitiveNtBL_13EllipticPointE4perpCsc7RMaTNwWKe_3lib
FNDA:212,_RNvXs_NtCs81zHBbp1AWX_11projgeom_rs10hyp_objectNtNtB6_9pg_object14HyperbolicLineINtNtB6_8ck_plane25CayleyKleinPlanePrimitiveNtBL_15HyperbolicPointE4perpCsc7RMaTNwWKe_3lib
FNDA:212,_RNvXs_NtCs81zHBbp1AWX_11projgeom_rs11myck_objectNtNtB6_9pg_object8MyCKLineINtNtB6_8ck_plane25CayleyKleinPlanePrimitiveNtBM_9MyCKPointE4perpCsc7RMaTNwWKe_3lib
FNDA:0,_RINvNtCskeUPLh1mzg6_11projgeom_rs8ck_plane11orthocenterppEB4_
FNDA:0,_RINvNtCskeUPLh1mzg6_11projgeom_rs8ck_plane12tri_altitudeppEB4_
FNDA:0,_RINvNtCskeUPLh1mzg6_11projgeom_rs8ck_plane16is_perpendicularppEB4_
FNDA:0,_RINvNtCskeUPLh1mzg6_11projgeom_rs8ck_plane7reflectpppEB4_
FNDA:0,_RINvNtCskeUPLh1mzg6_11projgeom_rs8ck_plane8altitudeppEB4_
FNDA:0,_RNvXNtCskeUPLh1mzg6_11projgeom_rs10ell_objectNtNtB4_9pg_object13EllipticPointINtNtB4_8ck_plane25CayleyKleinPlanePrimitiveNtBJ_12EllipticLineE4perpB4_
FNDA:0,_RNvXNtCskeUPLh1mzg6_11projgeom_rs10hyp_objectNtNtB4_9pg_object15HyperbolicPointINtNtB4_8ck_plane25CayleyKleinPlanePrimitiveNtBJ_14HyperbolicLineE4perpB4_
FNDA:0,_RNvXNtCskeUPLh1mzg6_11projgeom_rs11myck_objectNtNtB4_9pg_object9MyCKPointINtNtB4_8ck_plane25CayleyKleinPlanePrimitiveNtBK_8MyCKLineE4perpB4_
FNDA:0,_RNvXs0_NtCskeUPLh1mzg6_11projgeom_rs12persp_objectNtNtB7_9pg_object10PerspPointINtNtB7_8ck_plane25CayleyKleinPlanePrimitiveNtBO_9PerspLineE4perpB7_
FNDA:0,_RNvXs0_NtCskeUPLh1mzg6_11projgeom_rs13euclid_objectNtNtB7_9pg_object11EuclidPointINtNtB7_8ck_plane25CayleyKleinPlanePrimitiveNtBP_10EuclidLineE4perpB7_
FNDA:0,_RNvXs1_NtCskeUPLh1mzg6_11projgeom_rs12persp_objectNtNtB7_9pg_object9PerspLineINtNtB7_8ck_plane25CayleyKleinPlanePrimitiveNtBO_10PerspPointE4perpB7_
FNDA:0,_RNvXs_NtCskeUPLh1mzg6_11projgeom_rs10ell_objectNtNtB6_9pg_object12EllipticLineINtNtB6_8ck_plane25CayleyKleinPlanePrimitiveNtBL_13EllipticPointE4perpB6_
FNDA:0,_RNvXs_NtCskeUPLh1mzg6_11projgeom_rs10hyp_objectNtNtB6_9pg_object14HyperbolicLineINtNtB6_8ck_plane25CayleyKleinPlanePrimitiveNtBL_15HyperbolicPointE4perpB6_
FNDA:0,_RNvXs_NtCskeUPLh1mzg6_11projgeom_rs11myck_objectNtNtB6_9pg_object8MyCKLineINtNtB6_8ck_plane25CayleyKleinPlanePrimitiveNtBM_9MyCKPointE4perpB6_
FNDA:12,_RNvXs1_NtCskeUPLh1mzg6_11projgeom_rs13euclid_objectNtNtB7_9pg_object10EuclidLineINtNtB7_8ck_plane25CayleyKleinPlanePrimitiveNtBP_11EuclidPointE4perpB7_
FNF:7
FNH:7
DA:53,616
DA:54,616
DA:55,616
DA:56,616
DA:58,616
DA:59,616
DA:87,1684
DA:88,1684
DA:89,1684
DA:90,1684
DA:92,1684
DA:93,1684
DA:123,218
DA:124,218
DA:125,218
DA:126,218
DA:128,218
DA:129,218
DA:130,218
DA:131,218
DA:132,218
DA:133,218
DA:166,416
DA:167,416
DA:168,416
DA:169,416
DA:171,416
DA:172,416
DA:173,416
DA:174,416
DA:175,416
DA:176,416
DA:177,416
DA:178,416
DA:216,400
DA:217,400
DA:218,400
DA:219,400
DA:220,400
DA:222,400
DA:223,400
DA:231,836
DA:232,836
DA:233,836
DA:238,3276
DA:239,3276
DA:240,3276
BRF:0
BRH:0
LF:47
LH:47
end_of_record
SF:D:\github\rs\projgeom-rs\src\conic.rs
FN:198,_RNvMNtCs81zHBbp1AWX_11projgeom_rs5conicNtB2_5Conic10conic_type
FN:49,_RNvMNtCs81zHBbp1AWX_11projgeom_rs5conicNtB2_5Conic11unit_circle
FN:183,_RNvMNtCs81zHBbp1AWX_11projgeom_rs5conicNtB2_5Conic12discriminant
FN:21,_RNvMNtCs81zHBbp1AWX_11projgeom_rs5conicNtB2_5Conic3new
FN:135,_RNvMNtCs81zHBbp1AWX_11projgeom_rs5conicNtB2_5Conic4pole
FN:109,_RNvMNtCs81zHBbp1AWX_11projgeom_rs5conicNtB2_5Conic5polar
FN:32,_RNvMNtCs81zHBbp1AWX_11projgeom_rs5conicNtB2_5Conic6circle
FN:153,_RNvMNtCs81zHBbp1AWX_11projgeom_rs5conicNtB2_5Conic7tangent
FN:87,_RNvMNtCs81zHBbp1AWX_11projgeom_rs5conicNtB2_5Conic8contains
FN:58,_RNvMNtCs81zHBbp1AWX_11projgeom_rs5conicNtB2_5Conic8parabola
FN:167,_RNvMNtCs81zHBbp1AWX_11projgeom_rs5conicNtB2_5Conic9intersect
FN:272,_RNvNtNtCskeUPLh1mzg6_11projgeom_rs5conic5testss_10test_polar
FN:306,_RNvNtNtCskeUPLh1mzg6_11projgeom_rs5conic5testss_12test_tangent
FN:263,_RNvNtNtCskeUPLh1mzg6_11projgeom_rs5conic5testss_15test_conic_type
FN:227,_RNvNtNtCskeUPLh1mzg6_11projgeom_rs5conic5testss_16test_unit_circle
FN:338,_RNvNtNtCskeUPLh1mzg6_11projgeom_rs5conic5testss_20test_intersect_empty
FN:285,_RNvNtNtCskeUPLh1mzg6_11projgeom_rs5conic5testss_22test_parabola_creation
FN:247,_RNvNtNtCskeUPLh1mzg6_11projgeom_rs5conic5testss_23test_circle_with_center
FN:413,_RNvNtNtCskeUPLh1mzg6_11projgeom_rs5conic5testss_25test_conic_type_all_types
FN:358,_RNvNtNtCskeUPLh1mzg6_11projgeom_rs5conic5testss_25test_discriminant_ellipse
FN:367,_RNvNtNtCskeUPLh1mzg6_11projgeom_rs5conic5testss_26test_discriminant_parabola
FN:376,_RNvNtNtCskeUPLh1mzg6_11projgeom_rs5conic5testss_27test_discriminant_hyperbola
FN:319,_RNvNtNtCskeUPLh1mzg6_11projgeom_rs5conic5testss_28test_tangent_multiple_points
FN:348,_RNvNtNtCskeUPLh1mzg6_11projgeom_rs5conic5testss_34test_intersect_line_through_center
FN:293,_RNvNtNtCskeUPLh1mzg6_11projgeom_rs5conic5testss_36test_parabola_different_coefficients
FN:403,_RNvNtNtCskeUPLh1mzg6_11projgeom_rs5conic5testss_9test_pole
FN:198,_RNvMNtCskeUPLh1mzg6_11projgeom_rs5conicNtB2_5Conic10conic_type
FN:49,_RNvMNtCskeUPLh1mzg6_11projgeom_rs5conicNtB2_5Conic11unit_circle
FN:183,_RNvMNtCskeUPLh1mzg6_11projgeom_rs5conicNtB2_5Conic12discriminant
FN:21,_RNvMNtCskeUPLh1mzg6_11projgeom_rs5conicNtB2_5Conic3new
FN:135,_RNvMNtCskeUPLh1mzg6_11projgeom_rs5conicNtB2_5Conic4pole
FN:109,_RNvMNtCskeUPLh1mzg6_11projgeom_rs5conicNtB2_5Conic5polar
FN:32,_RNvMNtCskeUPLh1mzg6_11projgeom_rs5conicNtB2_5Conic6circle
FN:153,_RNvMNtCskeUPLh1mzg6_11projgeom_rs5conicNtB2_5Conic7tangent
FN:87,_RNvMNtCskeUPLh1mzg6_11projgeom_rs5conicNtB2_5Conic8contains
FN:58,_RNvMNtCskeUPLh1mzg6_11projgeom_rs5conicNtB2_5Conic8parabola
FN:167,_RNvMNtCskeUPLh1mzg6_11projgeom_rs5conicNtB2_5Conic9intersect
FNDA:0,_RNvMNtCs81zHBbp1AWX_11projgeom_rs5conicNtB2_5Conic10conic_type
FNDA:2,_RNvMNtCs81zHBbp1AWX_11projgeom_rs5conicNtB2_5Conic11unit_circle
FNDA:0,_RNvMNtCs81zHBbp1AWX_11projgeom_rs5conicNtB2_5Conic12discriminant
FNDA:0,_RNvMNtCs81zHBbp1AWX_11projgeom_rs5conicNtB2_5Conic3new
FNDA:0,_RNvMNtCs81zHBbp1AWX_11projgeom_rs5conicNtB2_5Conic4pole
FNDA:2,_RNvMNtCs81zHBbp1AWX_11projgeom_rs5conicNtB2_5Conic5polar
FNDA:2,_RNvMNtCs81zHBbp1AWX_11projgeom_rs5conicNtB2_5Conic6circle
FNDA:0,_RNvMNtCs81zHBbp1AWX_11projgeom_rs5conicNtB2_5Conic7tangent
FNDA:0,_RNvMNtCs81zHBbp1AWX_11projgeom_rs5conicNtB2_5Conic8contains
FNDA:0,_RNvMNtCs81zHBbp1AWX_11projgeom_rs5conicNtB2_5Conic8parabola
FNDA:0,_RNvMNtCs81zHBbp1AWX_11projgeom_rs5conicNtB2_5Conic9intersect
FNDA:2,_RNvNtNtCskeUPLh1mzg6_11projgeom_rs5conic5testss_10test_polar
FNDA:2,_RNvNtNtCskeUPLh1mzg6_11projgeom_rs5conic5testss_12test_tangent
FNDA:2,_RNvNtNtCskeUPLh1mzg6_11projgeom_rs5conic5testss_15test_conic_type
FNDA:2,_RNvNtNtCskeUPLh1mzg6_11projgeom_rs5conic5testss_16test_unit_circle
FNDA:2,_RNvNtNtCskeUPLh1mzg6_11projgeom_rs5conic5testss_20test_intersect_empty
FNDA:2,_RNvNtNtCskeUPLh1mzg6_11projgeom_rs5conic5testss_22test_parabola_creation
FNDA:2,_RNvNtNtCskeUPLh1mzg6_11projgeom_rs5conic5testss_23test_circle_with_center
FNDA:2,_RNvNtNtCskeUPLh1mzg6_11projgeom_rs5conic5testss_25test_conic_type_all_types
FNDA:2,_RNvNtNtCskeUPLh1mzg6_11projgeom_rs5conic5testss_25test_discriminant_ellipse
FNDA:2,_RNvNtNtCskeUPLh1mzg6_11projgeom_rs5conic5testss_26test_discriminant_parabola
FNDA:2,_RNvNtNtCskeUPLh1mzg6_11projgeom_rs5conic5testss_27test_discriminant_hyperbola
FNDA:2,_RNvNtNtCskeUPLh1mzg6_11projgeom_rs5conic5testss_28test_tangent_multiple_points
FNDA:2,_RNvNtNtCskeUPLh1mzg6_11projgeom_rs5conic5testss_34test_intersect_line_through_center
FNDA:2,_RNvNtNtCskeUPLh1mzg6_11projgeom_rs5conic5testss_36test_parabola_different_coefficients
FNDA:2,_RNvNtNtCskeUPLh1mzg6_11projgeom_rs5conic5testss_9test_pole
FNDA:16,_RNvMNtCskeUPLh1mzg6_11projgeom_rs5conicNtB2_5Conic10conic_type
FNDA:20,_RNvMNtCskeUPLh1mzg6_11projgeom_rs5conicNtB2_5Conic11unit_circle
FNDA:22,_RNvMNtCskeUPLh1mzg6_11projgeom_rs5conicNtB2_5Conic12discriminant
FNDA:4,_RNvMNtCskeUPLh1mzg6_11projgeom_rs5conicNtB2_5Conic3new
FNDA:2,_RNvMNtCskeUPLh1mzg6_11projgeom_rs5conicNtB2_5Conic4pole
FNDA:22,_RNvMNtCskeUPLh1mzg6_11projgeom_rs5conicNtB2_5Conic5polar
FNDA:22,_RNvMNtCskeUPLh1mzg6_11projgeom_rs5conicNtB2_5Conic6circle
FNDA:10,_RNvMNtCskeUPLh1mzg6_11projgeom_rs5conicNtB2_5Conic7tangent
FNDA:16,_RNvMNtCskeUPLh1mzg6_11projgeom_rs5conicNtB2_5Conic8contains
FNDA:12,_RNvMNtCskeUPLh1mzg6_11projgeom_rs5conicNtB2_5Conic8parabola
FNDA:4,_RNvMNtCskeUPLh1mzg6_11projgeom_rs5conicNtB2_5Conic9intersect
FNF:26
FNH:26
DA:21,4
DA:22,4
DA:23,4
DA:32,24
DA:33,24
DA:34,24
DA:35,24
DA:39,24
DA:40,24
DA:41,24
DA:42,24
DA:43,24
DA:45,24
DA:46,24
DA:49,22
DA:50,22
DA:51,22
DA:58,12
DA:61,12
DA:62,12
DA:63,12
DA:64,12
DA:65,12
DA:66,12
DA:67,12
DA:68,12
DA:69,12
DA:70,12
DA:71,12
DA:72,12
DA:73,12
DA:75,12
DA:76,12
DA:87,16
DA:88,16
DA:89,16
DA:90,16
DA:93,16
DA:94,16
DA:95,16
DA:97,16
DA:98,16
DA:109,24
DA:110,24
DA:111,24
DA:112,24
DA:115,24
DA:116,24
DA:117,24
DA:119,24
DA:120,24
DA:121,24
DA:122,24
DA:123,24
DA:124,24
DA:135,2
DA:141,2
DA:142,2
DA:153,10
DA:155,10
DA:156,10
DA:167,4
DA:172,4
DA:173,4
DA:183,22
DA:185,22
DA:186,22
DA:187,22
DA:188,22
DA:190,22
DA:191,22
DA:198,16
DA:199,16
DA:201,16
DA:202,4
DA:203,12
DA:204,10
DA:206,2
DA:208,16
DA:227,2
DA:228,2
DA:231,2
DA:232,2
DA:233,2
DA:234,2
DA:236,2
DA:237,2
DA:238,2
DA:239,2
DA:242,2
DA:243,2
DA:244,2
DA:247,2
DA:248,2
DA:251,2
DA:252,2
DA:255,2
DA:256,2
DA:258,2
DA:259,2
DA:260,2
DA:263,2
DA:264,2
DA:265,2
DA:267,2
DA:268,2
DA:269,2
DA:272,2
DA:273,2
DA:276,2
DA:277,2
DA:281,2
DA:282,2
DA:285,2
DA:286,2
DA:289,2
DA:290,2
DA:293,2
DA:294,2
DA:295,2
DA:298,2
DA:299,2
DA:302,2
DA:303,2
DA:306,2
DA:307,2
DA:310,2
DA:311,2
DA:314,2
DA:315,2
DA:316,2
DA:319,2
DA:320,2
DA:323,2
DA:324,2
DA:325,2
DA:326,2
DA:327,2
DA:330,8
DA:331,8
DA:332,8
DA:333,8
DA:335,2
DA:338,2
DA:339,2
DA:340,2
DA:342,2
DA:344,2
DA:345,2
DA:348,2
DA:349,2
DA:350,2
DA:352,2
DA:354,2
DA:355,2
DA:358,2
DA:359,2
DA:360,2
DA:363,2
DA:364,2
DA:367,2
DA:368,2
DA:369,2
DA:372,2
DA:373,2
DA:376,2
DA:378,2
DA:379,2
DA:380,2
DA:381,2
DA:382,2
DA:383,2
DA:384,2
DA:385,2
DA:386,2
DA:387,2
DA:388,2
DA:389,2
DA:390,2
DA:391,2
DA:392,2
DA:393,2
DA:394,2
DA:395,2
DA:396,2
DA:399,2
DA:400,2
DA:403,2
DA:404,2
DA:405,2
DA:407,2
DA:409,2
DA:410,2
DA:413,2
DA:415,2
DA:416,2
DA:419,2
DA:420,2
DA:423,2
DA:424,2
DA:425,2
DA:426,2
DA:427,2
DA:428,2
DA:429,2
DA:430,2
DA:431,2
DA:432,2
DA:433,2
DA:434,2
DA:435,2
DA:436,2
DA:437,2
DA:438,2
DA:439,2
DA:440,2
DA:441,2
DA:442,2
BRF:0
BRH:0
LF:218
LH:218
end_of_record
SF:D:\github\rs\projgeom-rs\src\cross_ratio.rs
FN:256,_RNvNtNtCskeUPLh1mzg6_11projgeom_rs11cross_ratio5testss_22test_cross_ratio_basic
FN:284,_RNvNtNtCskeUPLh1mzg6_11projgeom_rs11cross_ratio5testss_22test_cross_ratio_lines
FN:268,_RNvNtNtCskeUPLh1mzg6_11projgeom_rs11cross_ratio5testss_25test_is_harmonic_division
FN:295,_RNvNtNtCskeUPLh1mzg6_11projgeom_rs11cross_ratio5testss_30test_projective_transform_line
FN:319,_RNvNtNtCskeUPLh1mzg6_11projgeom_rs11cross_ratio5testss_33test_compute_parameter_edge_cases
FN:368,_RNvNtNtCskeUPLh1mzg6_11projgeom_rs11cross_ratio5testss_33test_compute_projective_transform
FN:342,_RNvNtNtCskeUPLh1mzg6_11projgeom_rs11cross_ratio5testss_34test_projective_transform_identity
FN:460,_RNvNtNtCskeUPLh1mzg6_11projgeom_rs11cross_ratio5testss_43test_projective_transform_line_non_identity
FN:434,_RNvNtNtCskeUPLh1mzg6_11projgeom_rs11cross_ratio5testss_44test_projective_transform_point_non_identity
FN:394,_RNvNtNtCskeUPLh1mzg6_11projgeom_rs11cross_ratio5testss_47test_compute_projective_transform_identity_case
FN:95,_RNvNtCskeUPLh1mzg6_11projgeom_rs11cross_ratio20is_harmonic_division
FN:38,_RNvNtCskeUPLh1mzg6_11projgeom_rs11cross_ratio11cross_ratio
FN:111,_RNvNtCskeUPLh1mzg6_11projgeom_rs11cross_ratio17compute_parameter
FN:66,_RNvNtCskeUPLh1mzg6_11projgeom_rs11cross_ratio17cross_ratio_lines
FN:183,_RNvNtCskeUPLh1mzg6_11projgeom_rs11cross_ratio25projective_transform_line
FN:152,_RNvNtCskeUPLh1mzg6_11projgeom_rs11cross_ratio26projective_transform_point
FN:221,_RNvNtCskeUPLh1mzg6_11projgeom_rs11cross_ratio28compute_projective_transform
FNDA:2,_RNvNtNtCskeUPLh1mzg6_11projgeom_rs11cross_ratio5testss_22test_cross_ratio_basic
FNDA:2,_RNvNtNtCskeUPLh1mzg6_11projgeom_rs11cross_ratio5testss_22test_cross_ratio_lines
FNDA:2,_RNvNtNtCskeUPLh1mzg6_11projgeom_rs11cross_ratio5testss_25test_is_harmonic_division
FNDA:2,_RNvNtNtCskeUPLh1mzg6_11projgeom_rs11cross_ratio5testss_30test_projective_transform_line
FNDA:2,_RNvNtNtCskeUPLh1mzg6_11projgeom_rs11cross_ratio5testss_33test_compute_parameter_edge_cases
FNDA:2,_RNvNtNtCskeUPLh1mzg6_11projgeom_rs11cross_ratio5testss_33test_compute_projective_transform
FNDA:2,_RNvNtNtCskeUPLh1mzg6_11projgeom_rs11cross_ratio5testss_34test_projective_transform_identity
FNDA:2,_RNvNtNtCskeUPLh1mzg6_11projgeom_rs11cross_ratio5testss_43test_projective_transform_line_non_identity
FNDA:2,_RNvNtNtCskeUPLh1mzg6_11projgeom_rs11cross_ratio5testss_44test_projective_transform_point_non_identity
FNDA:2,_RNvNtNtCskeUPLh1mzg6_11projgeom_rs11cross_ratio5testss_47test_compute_projective_transform_identity_case
FNDA:0,_RNvNtCskeUPLh1mzg6_11projgeom_rs11cross_ratio20is_harmonic_division
FNDA:6,_RNvNtCskeUPLh1mzg6_11projgeom_rs11cross_ratio11cross_ratio
FNDA:18,_RNvNtCskeUPLh1mzg6_11projgeom_rs11cross_ratio17compute_parameter
FNDA:2,_RNvNtCskeUPLh1mzg6_11projgeom_rs11cross_ratio17cross_ratio_lines
FNDA:4,_RNvNtCskeUPLh1mzg6_11projgeom_rs11cross_ratio25projective_transform_line
FNDA:4,_RNvNtCskeUPLh1mzg6_11projgeom_rs11cross_ratio26projective_transform_point
FNDA:4,_RNvNtCskeUPLh1mzg6_11projgeom_rs11cross_ratio28compute_projective_transform
FNF:17
FNH:16
DA:38,6
DA:40,6
DA:43,6
DA:44,6
DA:48,6
DA:49,6
DA:51,6
DA:52,6
DA:66,2
DA:69,2
DA:70,2
DA:71,2
DA:72,2
DA:73,2
DA:74,2
DA:75,2
DA:76,2
DA:77,2
DA:79,2
DA:95,0
DA:96,0
DA:97,0
DA:98,0
DA:111,18
DA:117,18
DA:118,2
DA:119,16
DA:121,16
DA:122,16
DA:123,16
DA:124,16
DA:125,16
DA:126,16
DA:128,16
DA:129,16
DA:131,16
DA:132,4
DA:133,2
DA:135,2
DA:138,12
DA:140,18
DA:152,4
DA:153,4
DA:154,4
DA:155,4
DA:157,4
DA:158,4
DA:159,4
DA:161,4
DA:162,4
DA:163,4
DA:166,4
DA:167,4
DA:168,4
DA:170,4
DA:171,4
DA:183,4
DA:186,4
DA:187,4
DA:188,4
DA:190,4
DA:191,4
DA:192,4
DA:194,4
DA:195,4
DA:196,4
DA:199,4
DA:200,4
DA:201,4
DA:203,4
DA:204,4
DA:221,4
DA:222,4
DA:223,4
DA:224,4
DA:232,4
DA:233,4
DA:234,4
DA:235,4
DA:236,4
DA:237,4
DA:238,4
DA:239,4
DA:240,4
DA:241,4
DA:242,4
DA:243,4
DA:244,4
DA:245,4
DA:246,4
DA:247,4
DA:248,4
DA:249,4
DA:256,2
DA:257,2
DA:258,2
DA:259,2
DA:260,2
DA:262,2
DA:264,2
DA:265,2
DA:268,2
DA:269,2
DA:270,2
DA:271,2
DA:272,2
DA:274,2
DA:280,2
DA:281,2
DA:284,2
DA:285,2
DA:286,2
DA:287,2
DA:288,2
DA:290,2
DA:291,2
DA:292,2
DA:295,2
DA:296,2
DA:297,2
DA:298,2
DA:299,2
DA:300,2
DA:301,2
DA:302,2
DA:303,2
DA:304,2
DA:305,2
DA:306,2
DA:307,2
DA:308,2
DA:309,2
DA:310,2
DA:311,2
DA:312,2
DA:313,2
DA:314,2
DA:315,2
DA:316,2
DA:319,2
DA:320,2
DA:321,2
DA:322,2
DA:324,2
DA:325,2
DA:327,2
DA:328,2
DA:329,2
DA:330,2
DA:331,2
DA:334,2
DA:335,2
DA:336,2
DA:337,2
DA:338,2
DA:339,2
DA:342,2
DA:343,2
DA:344,2
DA:345,2
DA:346,2
DA:347,2
DA:348,2
DA:349,2
DA:350,2
DA:351,2
DA:352,2
DA:353,2
DA:354,2
DA:355,2
DA:356,2
DA:357,2
DA:358,2
DA:359,2
DA:361,2
DA:362,2
DA:364,2
DA:365,2
DA:368,2
DA:369,2
DA:370,2
DA:371,2
DA:372,2
DA:373,2
DA:374,2
DA:376,2
DA:377,2
DA:378,2
DA:379,2
DA:380,2
DA:381,2
DA:383,2
DA:387,2
DA:388,6
DA:389,6
DA:391,2
DA:394,2
DA:395,2
DA:396,2
DA:397,2
DA:398,2
DA:399,2
DA:400,2
DA:402,2
DA:403,2
DA:404,2
DA:405,2
DA:406,2
DA:407,2
DA:409,2
DA:412,2
DA:413,2
DA:414,2
DA:415,2
DA:416,2
DA:417,2
DA:418,2
DA:419,2
DA:420,2
DA:421,2
DA:422,2
DA:423,2
DA:424,2
DA:425,2
DA:426,2
DA:427,2
DA:428,2
DA:430,2
DA:431,2
DA:434,2
DA:435,2
DA:436,2
DA:437,2
DA:438,2
DA:439,2
DA:440,2
DA:441,2
DA:442,2
DA:443,2
DA:444,2
DA:445,2
DA:446,2
DA:447,2
DA:448,2
DA:449,2
DA:450,2
DA:451,2
DA:453,2
DA:454,2
DA:456,2
DA:457,2
DA:460,2
DA:461,2
DA:462,2
DA:463,2
DA:464,2
DA:465,2
DA:466,2
DA:467,2
DA:468,2
DA:469,2
DA:470,2
DA:471,2
DA:472,2
DA:473,2
DA:474,2
DA:475,2
DA:476,2
DA:477,2
DA:479,2
DA:480,2
DA:484,2
DA:485,2
BRF:0
BRH:0
LF:273
LH:269
end_of_record
SF:D:\github\rs\projgeom-rs\src\ell_object.rs
FN:14,_RNCNvXs_NtCs81zHBbp1AWX_11projgeom_rs10ell_objectNtNtB8_9pg_object12EllipticLineINtNtB8_8ck_plane25CayleyKleinPlanePrimitiveNtBN_13EllipticPointE4perp0CsfZxzWFfcmPC_11integration
FN:13,_RNCNvXNtCs81zHBbp1AWX_11projgeom_rs10ell_objectNtNtB6_9pg_object13EllipticPointINtNtB6_8ck_plane25CayleyKleinPlanePrimitiveNtBL_12EllipticLineE4perp0Csc7RMaTNwWKe_3lib
FN:14,_RNCNvXs_NtCs81zHBbp1AWX_11projgeom_rs10ell_objectNtNtB8_9pg_object12EllipticLineINtNtB8_8ck_plane25CayleyKleinPlanePrimitiveNtBN_13EllipticPointE4perp0Csc7RMaTNwWKe_3lib
FN:13,_RNCNvXNtCskeUPLh1mzg6_11projgeom_rs10ell_objectNtNtB6_9pg_object13EllipticPointINtNtB6_8ck_plane25CayleyKleinPlanePrimitiveNtBL_12EllipticLineE4perp0B6_
FN:14,_RNCNvXs_NtCskeUPLh1mzg6_11projgeom_rs10ell_objectNtNtB8_9pg_object12EllipticLineINtNtB8_8ck_plane25CayleyKleinPlanePrimitiveNtBN_13EllipticPointE4perp0B8_
FNDA:4,_RNCNvXs_NtCs81zHBbp1AWX_11projgeom_rs10ell_objectNtNtB8_9pg_object12EllipticLineINtNtB8_8ck_plane25CayleyKleinPlanePrimitiveNtBN_13EllipticPointE4perp0CsfZxzWFfcmPC_11integration
FNDA:212,_RNCNvXNtCs81zHBbp1AWX_11projgeom_rs10ell_objectNtNtB6_9pg_object13EllipticPointINtNtB6_8ck_plane25CayleyKleinPlanePrimitiveNtBL_12EllipticLineE4perp0Csc7RMaTNwWKe_3lib
FNDA:1212,_RNCNvXs_NtCs81zHBbp1AWX_11projgeom_rs10ell_objectNtNtB8_9pg_object12EllipticLineINtNtB8_8ck_plane25CayleyKleinPlanePrimitiveNtBN_13EllipticPointE4perp0Csc7RMaTNwWKe_3lib
FNDA:0,_RNCNvXNtCskeUPLh1mzg6_11projgeom_rs10ell_objectNtNtB6_9pg_object13EllipticPointINtNtB6_8ck_plane25CayleyKleinPlanePrimitiveNtBL_12EllipticLineE4perp0B6_
FNDA:0,_RNCNvXs_NtCskeUPLh1mzg6_11projgeom_rs10ell_objectNtNtB8_9pg_object12EllipticLineINtNtB8_8ck_plane25CayleyKleinPlanePrimitiveNtBN_13EllipticPointE4perp0B8_
FNF:2
FNH:2
DA:13,212
DA:14,1216
BRF:0
BRH:0
LF:2
LH:2
end_of_record
SF:D:\github\rs\projgeom-rs\src\error.rs
FN:55,_RNCNvNtCskeUPLh1mzg6_11projgeom_rs5error11checked_add0B5_
FN:79,_RNCNvNtCskeUPLh1mzg6_11projgeom_rs5error11checked_div0B5_
FN:69,_RNCNvNtCskeUPLh1mzg6_11projgeom_rs5error11checked_mul0B5_
FN:62,_RNCNvNtCskeUPLh1mzg6_11projgeom_rs5error11checked_sub0B5_
FN:53,_RNvNtCskeUPLh1mzg6_11projgeom_rs5error11checked_addB3_
FN:74,_RNvNtCskeUPLh1mzg6_11projgeom_rs5error11checked_divB3_
FN:67,_RNvNtCskeUPLh1mzg6_11projgeom_rs5error11checked_mulB3_
FN:60,_RNvNtCskeUPLh1mzg6_11projgeom_rs5error11checked_subB3_
FN:84,_RNvNtCskeUPLh1mzg6_11projgeom_rs5error15validate_coordsB3_
FN:30,_RNvXNtCskeUPLh1mzg6_11projgeom_rs5errorNtB2_13GeometryErrorNtNtCs4TwWhthMkYr_4core3fmt7Display3fmt
FN:97,_RNvNtNtCskeUPLh1mzg6_11projgeom_rs5error5testss_24test_checked_add_success
FN:109,_RNvNtNtCskeUPLh1mzg6_11projgeom_rs5error5testss_24test_checked_div_by_zero
FN:139,_RNvNtNtCskeUPLh1mzg6_11projgeom_rs5error5testss_24test_checked_mul_success
FN:127,_RNvNtNtCskeUPLh1mzg6_11projgeom_rs5error5testss_24test_checked_sub_success
FN:103,_RNvNtNtCskeUPLh1mzg6_11projgeom_rs5error5testss_25test_checked_add_overflow
FN:145,_RNvNtNtCskeUPLh1mzg6_11projgeom_rs5error5testss_25test_checked_mul_overflow
FN:133,_RNvNtNtCskeUPLh1mzg6_11projgeom_rs5error5testss_25test_checked_sub_overflow
FN:115,_RNvNtNtCskeUPLh1mzg6_11projgeom_rs5error5testss_26test_validate_coords_valid
FN:151,_RNvNtNtCskeUPLh1mzg6_11projgeom_rs5error5testss_27test_error_display_overflow
FN:121,_RNvNtNtCskeUPLh1mzg6_11projgeom_rs5error5testss_28test_validate_coords_invalid
FN:194,_RNvNtNtCskeUPLh1mzg6_11projgeom_rs5error5testss_32test_error_display_not_collinear
FN:187,_RNvNtNtCskeUPLh1mzg6_11projgeom_rs5error5testss_35test_error_display_coincident_lines
FN:159,_RNvNtNtCskeUPLh1mzg6_11projgeom_rs5error5testss_35test_error_display_division_by_zero
FN:201,_RNvNtNtCskeUPLh1mzg6_11projgeom_rs5error5testss_35test_error_display_invalid_triangle
FN:180,_RNvNtNtCskeUPLh1mzg6_11projgeom_rs5error5testss_36test_error_display_coincident_points
FN:173,_RNvNtNtCskeUPLh1mzg6_11projgeom_rs5error5testss_36test_error_display_point_at_infinity
FN:166,_RNvNtNtCskeUPLh1mzg6_11projgeom_rs5error5testss_38test_error_display_invalid_coordinates
FNDA:2,_RNCNvNtCskeUPLh1mzg6_11projgeom_rs5error11checked_add0B5_
FNDA:0,_RNCNvNtCskeUPLh1mzg6_11projgeom_rs5error11checked_div0B5_
FNDA:2,_RNCNvNtCskeUPLh1mzg6_11projgeom_rs5error11checked_mul0B5_
FNDA:2,_RNCNvNtCskeUPLh1mzg6_11projgeom_rs5error11checked_sub0B5_
FNDA:4,_RNvNtCskeUPLh1mzg6_11projgeom_rs5error11checked_addB3_
FNDA:2,_RNvNtCskeUPLh1mzg6_11projgeom_rs5error11checked_divB3_
FNDA:4,_RNvNtCskeUPLh1mzg6_11projgeom_rs5error11checked_mulB3_
FNDA:4,_RNvNtCskeUPLh1mzg6_11projgeom_rs5error11checked_subB3_
FNDA:4,_RNvNtCskeUPLh1mzg6_11projgeom_rs5error15validate_coordsB3_
FNDA:16,_RNvXNtCskeUPLh1mzg6_11projgeom_rs5errorNtB2_13GeometryErrorNtNtCs4TwWhthMkYr_4core3fmt7Display3fmt
FNDA:2,_RNvNtNtCskeUPLh1mzg6_11projgeom_rs5error5testss_24test_checked_add_success
FNDA:2,_RNvNtNtCskeUPLh1mzg6_11projgeom_rs5error5testss_24test_checked_div_by_zero
FNDA:2,_RNvNtNtCskeUPLh1mzg6_11projgeom_rs5error5testss_24test_checked_mul_success
FNDA:2,_RNvNtNtCskeUPLh1mzg6_11projgeom_rs5error5testss_24test_checked_sub_success
FNDA:2,_RNvNtNtCskeUPLh1mzg6_11projgeom_rs5error5testss_25test_checked_add_overflow
FNDA:2,_RNvNtNtCskeUPLh1mzg6_11projgeom_rs5error5testss_25test_checked_mul_overflow
FNDA:2,_RNvNtNtCskeUPLh1mzg6_11projgeom_rs5error5testss_25test_checked_sub_overflow
FNDA:2,_RNvNtNtCskeUPLh1mzg6_11projgeom_rs5error5testss_26test_validate_coords_valid
FNDA:2,_RNvNtNtCskeUPLh1mzg6_11projgeom_rs5error5testss_27test_error_display_overflow
FNDA:2,_RNvNtNtCskeUPLh1mzg6_11projgeom_rs5error5testss_28test_validate_coords_invalid
FNDA:2,_RNvNtNtCskeUPLh1mzg6_11projgeom_rs5error5testss_32test_error_display_not_collinear
FNDA:2,_RNvNtNtCskeUPLh1mzg6_11projgeom_rs5error5testss_35test_error_display_coincident_lines
FNDA:2,_RNvNtNtCskeUPLh1mzg6_11projgeom_rs5error5testss_35test_error_display_division_by_zero
FNDA:2,_RNvNtNtCskeUPLh1mzg6_11projgeom_rs5error5testss_35test_error_display_invalid_triangle
FNDA:2,_RNvNtNtCskeUPLh1mzg6_11projgeom_rs5error5testss_36test_error_display_coincident_points
FNDA:2,_RNvNtNtCskeUPLh1mzg6_11projgeom_rs5error5testss_36test_error_display_point_at_infinity
FNDA:2,_RNvNtNtCskeUPLh1mzg6_11projgeom_rs5error5testss_38test_error_display_invalid_coordinates
FNF:27
FNH:26
DA:30,16
DA:31,16
DA:32,2
DA:33,2
DA:35,2
DA:37,2
DA:38,2
DA:39,2
DA:40,2
DA:41,2
DA:43,16
DA:53,4
DA:54,4
DA:55,4
DA:56,4
DA:60,4
DA:61,4
DA:62,4
DA:63,4
DA:67,4
DA:68,4
DA:69,4
DA:70,4
DA:74,2
DA:75,2
DA:76,2
DA:77,0
DA:78,0
DA:79,0
DA:80,2
DA:84,4
DA:85,4
DA:86,2
DA:88,2
DA:90,4
DA:97,2
DA:98,2
DA:99,2
DA:100,2
DA:103,2
DA:104,2
DA:105,2
DA:106,2
DA:109,2
DA:110,2
DA:111,2
DA:112,2
DA:115,2
DA:116,2
DA:117,2
DA:118,2
DA:121,2
DA:122,2
DA:123,2
DA:124,2
DA:127,2
DA:128,2
DA:129,2
DA:130,2
DA:133,2
DA:134,2
DA:135,2
DA:136,2
DA:139,2
DA:140,2
DA:141,2
DA:142,2
DA:145,2
DA:146,2
DA:147,2
DA:148,2
DA:151,2
DA:152,2
DA:153,2
DA:154,2
DA:155,2
DA:156,2
DA:159,2
DA:160,2
DA:161,2
DA:162,2
DA:163,2
DA:166,2
DA:167,2
DA:168,2
DA:169,2
DA:170,2
DA:173,2
DA:174,2
DA:175,2
DA:176,2
DA:177,2
DA:180,2
DA:181,2
DA:182,2
DA:183,2
DA:184,2
DA:187,2
DA:188,2
DA:189,2
DA:190,2
DA:191,2
DA:194,2
DA:195,2
DA:196,2
DA:197,2
DA:198,2
DA:201,2
DA:202,2
DA:203,2
DA:204,2
DA:205,2
BRF:0
BRH:0
LF:116
LH:112
end_of_record
SF:D:\github\rs\projgeom-rs\src\euclid_object.rs
FN:99,_RNvMNtCs81zHBbp1AWX_11projgeom_rs13euclid_objectNtNtB4_9pg_object10EuclidLine8altitudeB4_
FN:16,_RNCNvXs1_NtCs81zHBbp1AWX_11projgeom_rs13euclid_objectNtNtB9_9pg_object10EuclidLineINtNtB9_8ck_plane25CayleyKleinPlanePrimitiveNtBR_11EuclidPointE4perp0B9_
FN:44,_RNvMNtCs81zHBbp1AWX_11projgeom_rs13euclid_objectNtNtB4_9pg_object10EuclidLine11is_parallelCsfZxzWFfcmPC_11integration
FN:15,_RNCNvXs0_NtCs81zHBbp1AWX_11projgeom_rs13euclid_objectNtNtB9_9pg_object11EuclidPointINtNtB9_8ck_plane25CayleyKleinPlanePrimitiveNtBR_10EuclidLineE4perp0Csc7RMaTNwWKe_3lib
FN:161,_RNvNtCs81zHBbp1AWX_11projgeom_rs13euclid_object12tri_altitude
FN:15,_RNCNvXs0_NtCskeUPLh1mzg6_11projgeom_rs13euclid_objectNtNtB9_9pg_object11EuclidPointINtNtB9_8ck_plane25CayleyKleinPlanePrimitiveNtBR_10EuclidLineE4perp0B9_
FN:44,_RNvMNtCskeUPLh1mzg6_11projgeom_rs13euclid_objectNtNtB4_9pg_object10EuclidLine11is_parallelB4_
FN:71,_RNvMNtCskeUPLh1mzg6_11projgeom_rs13euclid_objectNtNtB4_9pg_object10EuclidLine16is_perpendicularB4_
FN:99,_RNvMNtCskeUPLh1mzg6_11projgeom_rs13euclid_objectNtNtB4_9pg_object10EuclidLine8altitudeB4_
FN:127,_RNvMs_NtCskeUPLh1mzg6_11projgeom_rs13euclid_objectNtNtB6_9pg_object11EuclidPoint8midpointB6_
FN:16,_RNCNvXs1_NtCskeUPLh1mzg6_11projgeom_rs13euclid_objectNtNtB9_9pg_object10EuclidLineINtNtB9_8ck_plane25CayleyKleinPlanePrimitiveNtBR_11EuclidPointE4perp0B9_
FN:197,_RNvNtCskeUPLh1mzg6_11projgeom_rs13euclid_object11orthocenterB3_
FN:161,_RNvNtCskeUPLh1mzg6_11projgeom_rs13euclid_object12tri_altitude
FN:238,_RNvNtNtCskeUPLh1mzg6_11projgeom_rs13euclid_object5testss_20test_euclid_altitude
FN:247,_RNvNtNtCskeUPLh1mzg6_11projgeom_rs13euclid_object5testss_20test_euclid_midpoint
FN:211,_RNvNtNtCskeUPLh1mzg6_11projgeom_rs13euclid_object5testss_20test_euclid_parallel
FN:279,_RNvNtNtCskeUPLh1mzg6_11projgeom_rs13euclid_object5testss_23test_euclid_orthocenter
FN:259,_RNvNtNtCskeUPLh1mzg6_11projgeom_rs13euclid_object5testss_24test_euclid_tri_altitude
FN:225,_RNvNtNtCskeUPLh1mzg6_11projgeom_rs13euclid_object5testss_25test_euclid_perpendicular
FNDA:0,_RNvMNtCs81zHBbp1AWX_11projgeom_rs13euclid_objectNtNtB4_9pg_object10EuclidLine8altitudeB4_
FNDA:1612,_RNCNvXs1_NtCs81zHBbp1AWX_11projgeom_rs13euclid_objectNtNtB9_9pg_object10EuclidLineINtNtB9_8ck_plane25CayleyKleinPlanePrimitiveNtBR_11EuclidPointE4perp0B9_
FNDA:2,_RNvMNtCs81zHBbp1AWX_11projgeom_rs13euclid_objectNtNtB4_9pg_object10EuclidLine11is_parallelCsfZxzWFfcmPC_11integration
FNDA:200,_RNCNvXs0_NtCs81zHBbp1AWX_11projgeom_rs13euclid_objectNtNtB9_9pg_object11EuclidPointINtNtB9_8ck_plane25CayleyKleinPlanePrimitiveNtBR_10EuclidLineE4perp0Csc7RMaTNwWKe_3lib
FNDA:0,_RNvNtCs81zHBbp1AWX_11projgeom_rs13euclid_object12tri_altitude
FNDA:0,_RNCNvXs0_NtCskeUPLh1mzg6_11projgeom_rs13euclid_objectNtNtB9_9pg_object11EuclidPointINtNtB9_8ck_plane25CayleyKleinPlanePrimitiveNtBR_10EuclidLineE4perp0B9_
FNDA:6,_RNvMNtCskeUPLh1mzg6_11projgeom_rs13euclid_objectNtNtB4_9pg_object10EuclidLine11is_parallelB4_
FNDA:12,_RNvMNtCskeUPLh1mzg6_11projgeom_rs13euclid_objectNtNtB4_9pg_object10EuclidLine16is_perpendicularB4_
FNDA:12,_RNvMNtCskeUPLh1mzg6_11projgeom_rs13euclid_objectNtNtB4_9pg_object10EuclidLine8altitudeB4_
FNDA:4,_RNvMs_NtCskeUPLh1mzg6_11projgeom_rs13euclid_objectNtNtB6_9pg_object11EuclidPoint8midpointB6_
FNDA:12,_RNCNvXs1_NtCskeUPLh1mzg6_11projgeom_rs13euclid_objectNtNtB9_9pg_object10EuclidLineINtNtB9_8ck_plane25CayleyKleinPlanePrimitiveNtBR_11EuclidPointE4perp0B9_
FNDA:2,_RNvNtCskeUPLh1mzg6_11projgeom_rs13euclid_object11orthocenterB3_
FNDA:2,_RNvNtCskeUPLh1mzg6_11projgeom_rs13euclid_object12tri_altitude
FNDA:2,_RNvNtNtCskeUPLh1mzg6_11projgeom_rs13euclid_object5testss_20test_euclid_altitude
FNDA:2,_RNvNtNtCskeUPLh1mzg6_11projgeom_rs13euclid_object5testss_20test_euclid_midpoint
FNDA:2,_RNvNtNtCskeUPLh1mzg6_11projgeom_rs13euclid_object5testss_20test_euclid_parallel
FNDA:2,_RNvNtNtCskeUPLh1mzg6_11projgeom_rs13euclid_object5testss_23test_euclid_orthocenter
FNDA:2,_RNvNtNtCskeUPLh1mzg6_11projgeom_rs13euclid_object5testss_24test_euclid_tri_altitude
FNDA:2,_RNvNtNtCskeUPLh1mzg6_11projgeom_rs13euclid_object5testss_25test_euclid_perpendicular
FNF:14
FNH:14
DA:15,200
DA:16,1624
DA:44,8
DA:45,8
DA:46,8
DA:71,12
DA:72,12
DA:73,12
DA:99,12
DA:100,12
DA:101,12
DA:127,4
DA:128,4
DA:129,4
DA:161,2
DA:162,2
DA:163,2
DA:164,2
DA:165,2
DA:166,2
DA:167,2
DA:168,2
DA:169,2
DA:197,2
DA:198,2
DA:199,2
DA:200,2
DA:201,2
DA:202,2
DA:203,2
DA:211,2
DA:212,2
DA:213,2
DA:214,2
DA:216,2
DA:217,2
DA:219,2
DA:220,2
DA:221,2
DA:222,2
DA:225,2
DA:226,2
DA:227,2
DA:228,2
DA:230,2
DA:231,2
DA:232,2
DA:234,2
DA:235,2
DA:238,2
DA:239,2
DA:240,2
DA:241,2
DA:243,2
DA:244,2
DA:247,2
DA:248,2
DA:249,2
DA:250,2
DA:251,2
DA:253,2
DA:254,2
DA:255,2
DA:256,2
DA:259,2
DA:260,2
DA:261,2
DA:262,2
DA:263,2
DA:264,2
DA:267,2
DA:268,2
DA:269,2
DA:272,2
DA:273,2
DA:274,2
DA:275,2
DA:276,2
DA:279,2
DA:280,2
DA:281,2
DA:282,2
DA:283,2
DA:284,2
DA:287,2
DA:288,2
BRF:0
BRH:0
LF:86
LH:86
end_of_record
SF:D:\github\rs\projgeom-rs\src\ffi.rs
FN:233,pg_get_last_error
FN:212,pg_line_eq
FN:87,pg_line_free
FN:99,pg_line_get_coeffs
FN:146,pg_line_meet
FN:76,pg_line_new
FN:191,pg_point_eq
FN:40,pg_point_free
FN:52,pg_point_get_coords
FN:167,pg_point_incident
FN:124,pg_point_meet
FN:29,pg_point_new
FN:250,pg_set_last_error
FN:299,_RNvNtNtCskeUPLh1mzg6_11projgeom_rs3ffi5testss_13test_ffi_meet
FN:379,_RNvNtNtCskeUPLh1mzg6_11projgeom_rs3ffi5testss_15test_ffi_errors
FN:355,_RNvNtNtCskeUPLh1mzg6_11projgeom_rs3ffi5testss_17test_ffi_equality
FN:320,_RNvNtNtCskeUPLh1mzg6_11projgeom_rs3ffi5testss_17test_ffi_incident
FN:334,_RNvNtNtCskeUPLh1mzg6_11projgeom_rs3ffi5testss_18test_ffi_line_meet
FN:282,_RNvNtNtCskeUPLh1mzg6_11projgeom_rs3ffi5testss_22test_ffi_line_creation
FN:396,_RNvNtNtCskeUPLh1mzg6_11projgeom_rs3ffi5testss_22test_ffi_null_handling
FN:265,_RNvNtNtCskeUPLh1mzg6_11projgeom_rs3ffi5testss_23test_ffi_point_creation
FNDA:0,pg_get_last_error
FNDA:0,pg_line_eq
FNDA:0,pg_line_free
FNDA:0,pg_line_get_coeffs
FNDA:0,pg_line_meet
FNDA:0,pg_line_new
FNDA:0,pg_point_eq
FNDA:0,pg_point_free
FNDA:0,pg_point_get_coords
FNDA:0,pg_point_incident
FNDA:0,pg_point_meet
FNDA:0,pg_point_new
FNDA:0,pg_set_last_error
FNDA:2,_RNvNtNtCskeUPLh1mzg6_11projgeom_rs3ffi5testss_13test_ffi_meet
FNDA:2,_RNvNtNtCskeUPLh1mzg6_11projgeom_rs3ffi5testss_15test_ffi_errors
FNDA:2,_RNvNtNtCskeUPLh1mzg6_11projgeom_rs3ffi5testss_17test_ffi_equality
FNDA:2,_RNvNtNtCskeUPLh1mzg6_11projgeom_rs3ffi5testss_17test_ffi_incident
FNDA:2,_RNvNtNtCskeUPLh1mzg6_11projgeom_rs3ffi5testss_18test_ffi_line_meet
FNDA:2,_RNvNtNtCskeUPLh1mzg6_11projgeom_rs3ffi5testss_22test_ffi_line_creation
FNDA:2,_RNvNtNtCskeUPLh1mzg6_11projgeom_rs3ffi5testss_22test_ffi_null_handling
FNDA:2,_RNvNtNtCskeUPLh1mzg6_11projgeom_rs3ffi5testss_23test_ffi_point_creation
FNF:21
FNH:8
DA:29,0
DA:30,0
DA:31,0
DA:32,0
DA:40,0
DA:41,0
DA:42,0
DA:43,0
DA:44,0
DA:52,0
DA:53,0
DA:54,0
DA:55,0
DA:56,0
DA:57,0
DA:58,0
DA:59,0
DA:60,0
DA:62,0
DA:63,0
DA:64,0
DA:65,0
DA:67,0
DA:68,0
DA:76,0
DA:77,0
DA:78,0
DA:79,0
DA:87,0
DA:88,0
DA:89,0
DA:90,0
DA:91,0
DA:99,0
DA:100,0
DA:101,0
DA:102,0
DA:103,0
DA:104,0
DA:105,0
DA:106,0
DA:107,0
DA:109,0
DA:110,0
DA:111,0
DA:112,0
DA:114,0
DA:115,0
DA:124,0
DA:125,0
DA:126,0
DA:127,0
DA:128,0
DA:129,0
DA:130,0
DA:132,0
DA:133,0
DA:135,0
DA:136,0
DA:137,0
DA:146,0
DA:147,0
DA:148,0
DA:149,0
DA:150,0
DA:151,0
DA:152,0
DA:154,0
DA:155,0
DA:157,0
DA:158,0
DA:159,0
DA:167,0
DA:168,0
DA:169,0
DA:170,0
DA:171,0
DA:172,0
DA:173,0
DA:175,0
DA:176,0
DA:178,0
DA:179,0
DA:181,0
DA:183,0
DA:191,0
DA:192,0
DA:193,0
DA:194,0
DA:196,0
DA:197,0
DA:199,0
DA:200,0
DA:202,0
DA:204,0
DA:212,0
DA:213,0
DA:214,0
DA:215,0
DA:217,0
DA:218,0
DA:220,0
DA:221,0
DA:223,0
DA:225,0
DA:233,0
DA:237,0
DA:238,0
DA:239,0
DA:242,0
DA:250,0
DA:253,0
DA:254,0
DA:255,0
DA:256,0
DA:257,0
DA:258,0
DA:265,2
DA:266,2
DA:267,2
DA:269,2
DA:270,2
DA:271,2
DA:272,2
DA:273,2
DA:274,2
DA:275,2
DA:276,2
DA:278,2
DA:279,2
DA:282,2
DA:283,2
DA:284,2
DA:286,2
DA:287,2
DA:288,2
DA:289,2
DA:290,2
DA:291,2
DA:292,2
DA:293,2
DA:295,2
DA:296,2
DA:299,2
DA:300,2
DA:301,2
DA:303,2
DA:304,2
DA:306,2
DA:307,2
DA:308,2
DA:309,2
DA:310,2
DA:311,2
DA:312,2
DA:314,2
DA:315,2
DA:316,2
DA:317,2
DA:320,2
DA:323,2
DA:324,2
DA:326,2
DA:327,2
DA:329,2
DA:330,2
DA:331,2
DA:334,2
DA:335,2
DA:336,2
DA:338,2
DA:339,2
DA:341,2
DA:342,2
DA:343,2
DA:344,2
DA:345,2
DA:346,2
DA:347,2
DA:349,2
DA:350,2
DA:351,2
DA:352,2
DA:355,2
DA:356,2
DA:357,2
DA:358,2
DA:360,2
DA:361,2
DA:363,2
DA:364,2
DA:365,2
DA:367,2
DA:368,2
DA:370,2
DA:371,2
DA:372,2
DA:373,2
DA:374,2
DA:375,2
DA:376,2
DA:379,2
DA:380,2
DA:381,2
DA:383,2
DA:387,2
DA:388,0
DA:389,0
DA:390,0
DA:391,0
DA:392,2
DA:393,2
DA:396,2
DA:397,2
DA:399,2
DA:400,2
DA:401,2
DA:402,2
DA:403,2
DA:408,2
DA:410,2
DA:411,2
DA:412,2
DA:413,2
DA:414,2
DA:419,2
DA:420,2
DA:421,2
DA:422,2
DA:425,2
DA:426,2
DA:429,2
DA:432,2
DA:433,2
DA:434,2
BRF:0
BRH:0
LF:235
LH:114
end_of_record
SF:D:\github\rs\projgeom-rs\src\geometry.rs
FN:24,_RNvXNtCs81zHBbp1AWX_11projgeom_rs8geometryNtNtB4_9pg_object7PgPointNtB2_8Geometry13geometry_name
FN:28,_RNvXNtCs81zHBbp1AWX_11projgeom_rs8geometryNtNtB4_9pg_object7PgPointNtB2_8Geometry5coord
FN:44,_RNvXs0_NtCs81zHBbp1AWX_11projgeom_rs8geometryNtNtB7_9pg_object13EllipticPointNtB5_8Geometry13geometry_name
FN:48,_RNvXs0_NtCs81zHBbp1AWX_11projgeom_rs8geometryNtNtB7_9pg_object13EllipticPointNtB5_8Geometry5coord
FN:54,_RNvXs1_NtCs81zHBbp1AWX_11projgeom_rs8geometryNtNtB7_9pg_object12EllipticLineNtB5_8Geometry13geometry_name
FN:58,_RNvXs1_NtCs81zHBbp1AWX_11projgeom_rs8geometryNtNtB7_9pg_object12EllipticLineNtB5_8Geometry5coord
FN:64,_RNvXs2_NtCs81zHBbp1AWX_11projgeom_rs8geometryNtNtB7_9pg_object15HyperbolicPointNtB5_8Geometry13geometry_name
FN:68,_RNvXs2_NtCs81zHBbp1AWX_11projgeom_rs8geometryNtNtB7_9pg_object15HyperbolicPointNtB5_8Geometry5coord
FN:74,_RNvXs3_NtCs81zHBbp1AWX_11projgeom_rs8geometryNtNtB7_9pg_object14HyperbolicLineNtB5_8Geometry13geometry_name
FN:78,_RNvXs3_NtCs81zHBbp1AWX_11projgeom_rs8geometryNtNtB7_9pg_object14HyperbolicLineNtB5_8Geometry5coord
FN:84,_RNvXs4_NtCs81zHBbp1AWX_11projgeom_rs8geometryNtNtB7_9pg_object11EuclidPointNtB5_8Geometry13geometry_name
FN:88,_RNvXs4_NtCs81zHBbp1AWX_11projgeom_rs8geometryNtNtB7_9pg_object11EuclidPointNtB5_8Geometry5coord
FN:94,_RNvXs5_NtCs81zHBbp1AWX_11projgeom_rs8geometryNtNtB7_9pg_object10EuclidLineNtB5_8Geometry13geometry_name
FN:98,_RNvXs5_NtCs81zHBbp1AWX_11projgeom_rs8geometryNtNtB7_9pg_object10EuclidLineNtB5_8Geometry5coord
FN:108,_RNvXs6_NtCs81zHBbp1AWX_11projgeom_rs8geometryNtNtB7_9pg_object13EllipticPointINtNtCs4TwWhthMkYr_4core7convert7TryFromNtBJ_7PgPointE8try_from
FN:116,_RNvXs7_NtCs81zHBbp1AWX_11projgeom_rs8geometryNtNtB7_9pg_object15HyperbolicPointINtNtCs4TwWhthMkYr_4core7convert7TryFromNtBJ_7PgPointE8try_from
FN:124,_RNvXs8_NtCs81zHBbp1AWX_11projgeom_rs8geometryNtNtB7_9pg_object11EuclidPointINtNtCs4TwWhthMkYr_4core7convert7TryFromNtBJ_7PgPointE8try_from
FN:132,_RNvXs9_NtCs81zHBbp1AWX_11projgeom_rs8geometryNtNtB7_9pg_object7PgPointINtNtCs4TwWhthMkYr_4core7convert7TryFromNtBJ_13EllipticPointE8try_from
FN:34,_RNvXs_NtCs81zHBbp1AWX_11projgeom_rs8geometryNtNtB6_9pg_object6PgLineNtB4_8Geometry13geometry_name
FN:38,_RNvXs_NtCs81zHBbp1AWX_11projgeom_rs8geometryNtNtB6_9pg_object6PgLineNtB4_8Geometry5coord
FN:140,_RNvXsa_NtCs81zHBbp1AWX_11projgeom_rs8geometryNtNtB7_9pg_object7PgPointINtNtCs4TwWhthMkYr_4core7convert7TryFromNtBJ_15HyperbolicPointE8try_from
FN:148,_RNvXsb_NtCs81zHBbp1AWX_11projgeom_rs8geometryNtNtB7_9pg_object7PgPointINtNtCs4TwWhthMkYr_4core7convert7TryFromNtBJ_11EuclidPointE8try_from
FN:156,_RNvXsc_NtCs81zHBbp1AWX_11projgeom_rs8geometryNtNtB7_9pg_object12EllipticLineINtNtCs4TwWhthMkYr_4core7convert7TryFromNtBJ_6PgLineE8try_from
FN:164,_RNvXsd_NtCs81zHBbp1AWX_11projgeom_rs8geometryNtNtB7_9pg_object14HyperbolicLineINtNtCs4TwWhthMkYr_4core7convert7TryFromNtBJ_6PgLineE8try_from
FN:172,_RNvXse_NtCs81zHBbp1AWX_11projgeom_rs8geometryNtNtB7_9pg_object10EuclidLineINtNtCs4TwWhthMkYr_4core7convert7TryFromNtBJ_6PgLineE8try_from
FN:180,_RNvXsf_NtCs81zHBbp1AWX_11projgeom_rs8geometryNtNtB7_9pg_object6PgLineINtNtCs4TwWhthMkYr_4core7convert7TryFromNtBJ_12EllipticLineE8try_from
FN:188,_RNvXsg_NtCs81zHBbp1AWX_11projgeom_rs8geometryNtNtB7_9pg_object6PgLineINtNtCs4TwWhthMkYr_4core7convert7TryFromNtBJ_14HyperbolicLineE8try_from
FN:196,_RNvXsh_NtCs81zHBbp1AWX_11projgeom_rs8geometryNtNtB7_9pg_object6PgLineINtNtCs4TwWhthMkYr_4core7convert7TryFromNtBJ_10EuclidLineE8try_from
FN:230,_RNvNtNtCskeUPLh1mzg6_11projgeom_rs8geometry5testss_19test_geometry_coord
FN:206,_RNvNtNtCskeUPLh1mzg6_11projgeom_rs8geometry5testss_26test_pgpoint_geometry_name
FN:224,_RNvNtNtCskeUPLh1mzg6_11projgeom_rs8geometry5testss_30test_euclidpoint_geometry_name
FN:212,_RNvNtNtCskeUPLh1mzg6_11projgeom_rs8geometry5testss_32test_ellipticpoint_geometry_name
FN:218,_RNvNtNtCskeUPLh1mzg6_11projgeom_rs8geometry5testss_34test_hyperbolicpoint_geometry_name
FN:48,_RNvXs0_NtCskeUPLh1mzg6_11projgeom_rs8geometryNtNtB7_9pg_object13EllipticPointNtB5_8Geometry5coord
FN:54,_RNvXs1_NtCskeUPLh1mzg6_11projgeom_rs8geometryNtNtB7_9pg_object12EllipticLineNtB5_8Geometry13geometry_name
FN:58,_RNvXs1_NtCskeUPLh1mzg6_11projgeom_rs8geometryNtNtB7_9pg_object12EllipticLineNtB5_8Geometry5coord
FN:68,_RNvXs2_NtCskeUPLh1mzg6_11projgeom_rs8geometryNtNtB7_9pg_object15HyperbolicPointNtB5_8Geometry5coord
FN:74,_RNvXs3_NtCskeUPLh1mzg6_11projgeom_rs8geometryNtNtB7_9pg_object14HyperbolicLineNtB5_8Geometry13geometry_name
FN:78,_RNvXs3_NtCskeUPLh1mzg6_11projgeom_rs8geometryNtNtB7_9pg_object14HyperbolicLineNtB5_8Geometry5coord
FN:88,_RNvXs4_NtCskeUPLh1mzg6_11projgeom_rs8geometryNtNtB7_9pg_object11EuclidPointNtB5_8Geometry5coord
FN:94,_RNvXs5_NtCskeUPLh1mzg6_11projgeom_rs8geometryNtNtB7_9pg_object10EuclidLineNtB5_8Geometry13geometry_name
FN:98,_RNvXs5_NtCskeUPLh1mzg6_11projgeom_rs8geometryNtNtB7_9pg_object10EuclidLineNtB5_8Geometry5coord
FN:108,_RNvXs6_NtCskeUPLh1mzg6_11projgeom_rs8geometryNtNtB7_9pg_object13EllipticPointINtNtCs4TwWhthMkYr_4core7convert7TryFromNtBJ_7PgPointE8try_from
FN:116,_RNvXs7_NtCskeUPLh1mzg6_11projgeom_rs8geometryNtNtB7_9pg_object15HyperbolicPointINtNtCs4TwWhthMkYr_4core7convert7TryFromNtBJ_7PgPointE8try_from
FN:124,_RNvXs8_NtCskeUPLh1mzg6_11projgeom_rs8geometryNtNtB7_9pg_object11EuclidPointINtNtCs4TwWhthMkYr_4core7convert7TryFromNtBJ_7PgPointE8try_from
FN:132,_RNvXs9_NtCskeUPLh1mzg6_11projgeom_rs8geometryNtNtB7_9pg_object7PgPointINtNtCs4TwWhthMkYr_4core7convert7TryFromNtBJ_13EllipticPointE8try_from
FN:34,_RNvXs_NtCskeUPLh1mzg6_11projgeom_rs8geometryNtNtB6_9pg_object6PgLineNtB4_8Geometry13geometry_name
FN:38,_RNvXs_NtCskeUPLh1mzg6_11projgeom_rs8geometryNtNtB6_9pg_object6PgLineNtB4_8Geometry5coord
FN:140,_RNvXsa_NtCskeUPLh1mzg6_11projgeom_rs8geometryNtNtB7_9pg_object7PgPointINtNtCs4TwWhthMkYr_4core7convert7TryFromNtBJ_15HyperbolicPointE8try_from
FN:148,_RNvXsb_NtCskeUPLh1mzg6_11projgeom_rs8geometryNtNtB7_9pg_object7PgPointINtNtCs4TwWhthMkYr_4core7convert7TryFromNtBJ_11EuclidPointE8try_from
FN:156,_RNvXsc_NtCskeUPLh1mzg6_11projgeom_rs8geometryNtNtB7_9pg_object12EllipticLineINtNtCs4TwWhthMkYr_4core7convert7TryFromNtBJ_6PgLineE8try_from
FN:164,_RNvXsd_NtCskeUPLh1mzg6_11projgeom_rs8geometryNtNtB7_9pg_object14HyperbolicLineINtNtCs4TwWhthMkYr_4core7convert7TryFromNtBJ_6PgLineE8try_from
FN:172,_RNvXse_NtCskeUPLh1mzg6_11projgeom_rs8geometryNtNtB7_9pg_object10EuclidLineINtNtCs4TwWhthMkYr_4core7convert7TryFromNtBJ_6PgLineE8try_from
FN:180,_RNvXsf_NtCskeUPLh1mzg6_11projgeom_rs8geometryNtNtB7_9pg_object6PgLineINtNtCs4TwWhthMkYr_4core7convert7TryFromNtBJ_12EllipticLineE8try_from
FN:188,_RNvXsg_NtCskeUPLh1mzg6_11projgeom_rs8geometryNtNtB7_9pg_object6PgLineINtNtCs4TwWhthMkYr_4core7convert7TryFromNtBJ_14HyperbolicLineE8try_from
FN:196,_RNvXsh_NtCskeUPLh1mzg6_11projgeom_rs8geometryNtNtB7_9pg_object6PgLineINtNtCs4TwWhthMkYr_4core7convert7TryFromNtBJ_10EuclidLineE8try_from
FN:24,_RNvXNtCskeUPLh1mzg6_11projgeom_rs8geometryNtNtB4_9pg_object7PgPointNtB2_8Geometry13geometry_name
FN:28,_RNvXNtCskeUPLh1mzg6_11projgeom_rs8geometryNtNtB4_9pg_object7PgPointNtB2_8Geometry5coord
FN:44,_RNvXs0_NtCskeUPLh1mzg6_11projgeom_rs8geometryNtNtB7_9pg_object13EllipticPointNtB5_8Geometry13geometry_name
FN:64,_RNvXs2_NtCskeUPLh1mzg6_11projgeom_rs8geometryNtNtB7_9pg_object15HyperbolicPointNtB5_8Geometry13geometry_name
FN:84,_RNvXs4_NtCskeUPLh1mzg6_11projgeom_rs8geometryNtNtB7_9pg_object11EuclidPointNtB5_8Geometry13geometry_name
FNDA:0,_RNvXNtCs81zHBbp1AWX_11projgeom_rs8geometryNtNtB4_9pg_object7PgPointNtB2_8Geometry13geometry_name
FNDA:0,_RNvXNtCs81zHBbp1AWX_11projgeom_rs8geometryNtNtB4_9pg_object7PgPointNtB2_8Geometry5coord
FNDA:0,_RNvXs0_NtCs81zHBbp1AWX_11projgeom_rs8geometryNtNtB7_9pg_object13EllipticPointNtB5_8Geometry13geometry_name
FNDA:0,_RNvXs0_NtCs81zHBbp1AWX_11projgeom_rs8geometryNtNtB7_9pg_object13EllipticPointNtB5_8Geometry5coord
FNDA:0,_RNvXs1_NtCs81zHBbp1AWX_11projgeom_rs8geometryNtNtB7_9pg_object12EllipticLineNtB5_8Geometry13geometry_name
FNDA:0,_RNvXs1_NtCs81zHBbp1AWX_11projgeom_rs8geometryNtNtB7_9pg_object12EllipticLineNtB5_8Geometry5coord
FNDA:0,_RNvXs2_NtCs81zHBbp1AWX_11projgeom_rs8geometryNtNtB7_9pg_object15HyperbolicPointNtB5_8Geometry13geometry_name
FNDA:0,_RNvXs2_NtCs81zHBbp1AWX_11projgeom_rs8geometryNtNtB7_9pg_object15HyperbolicPointNtB5_8Geometry5coord
FNDA:0,_RNvXs3_NtCs81zHBbp1AWX_11projgeom_rs8geometryNtNtB7_9pg_object14HyperbolicLineNtB5_8Geometry13geometry_name
FNDA:0,_RNvXs3_NtCs81zHBbp1AWX_11projgeom_rs8geometryNtNtB7_9pg_object14HyperbolicLineNtB5_8Geometry5coord
FNDA:0,_RNvXs4_NtCs81zHBbp1AWX_11projgeom_rs8geometryNtNtB7_9pg_object11EuclidPointNtB5_8Geometry13geometry_name
FNDA:0,_RNvXs4_NtCs81zHBbp1AWX_11projgeom_rs8geometryNtNtB7_9pg_object11EuclidPointNtB5_8Geometry5coord
FNDA:0,_RNvXs5_NtCs81zHBbp1AWX_11projgeom_rs8geometryNtNtB7_9pg_object10EuclidLineNtB5_8Geometry13geometry_name
FNDA:0,_RNvXs5_NtCs81zHBbp1AWX_11projgeom_rs8geometryNtNtB7_9pg_object10EuclidLineNtB5_8Geometry5coord
FNDA:0,_RNvXs6_NtCs81zHBbp1AWX_11projgeom_rs8geometryNtNtB7_9pg_object13EllipticPointINtNtCs4TwWhthMkYr_4core7convert7TryFromNtBJ_7PgPointE8try_from
FNDA:0,_RNvXs7_NtCs81zHBbp1AWX_11projgeom_rs8geometryNtNtB7_9pg_object15HyperbolicPointINtNtCs4TwWhthMkYr_4core7convert7TryFromNtBJ_7PgPointE8try_from
FNDA:0,_RNvXs8_NtCs81zHBbp1AWX_11projgeom_rs8geometryNtNtB7_9pg_object11EuclidPointINtNtCs4TwWhthMkYr_4core7convert7TryFromNtBJ_7PgPointE8try_from
FNDA:0,_RNvXs9_NtCs81zHBbp1AWX_11projgeom_rs8geometryNtNtB7_9pg_object7PgPointINtNtCs4TwWhthMkYr_4core7convert7TryFromNtBJ_13EllipticPointE8try_from
FNDA:0,_RNvXs_NtCs81zHBbp1AWX_11projgeom_rs8geometryNtNtB6_9pg_object6PgLineNtB4_8Geometry13geometry_name
FNDA:0,_RNvXs_NtCs81zHBbp1AWX_11projgeom_rs8geometryNtNtB6_9pg_object6PgLineNtB4_8Geometry5coord
FNDA:0,_RNvXsa_NtCs81zHBbp1AWX_11projgeom_rs8geometryNtNtB7_9pg_object7PgPointINtNtCs4TwWhthMkYr_4core7convert7TryFromNtBJ_15HyperbolicPointE8try_from
FNDA:0,_RNvXsb_NtCs81zHBbp1AWX_11projgeom_rs8geometryNtNtB7_9pg_object7PgPointINtNtCs4TwWhthMkYr_4core7convert7TryFromNtBJ_11EuclidPointE8try_from
FNDA:0,_RNvXsc_NtCs81zHBbp1AWX_11projgeom_rs8geometryNtNtB7_9pg_object12EllipticLineINtNtCs4TwWhthMkYr_4core7convert7TryFromNtBJ_6PgLineE8try_from
FNDA:0,_RNvXsd_NtCs81zHBbp1AWX_11projgeom_rs8geometryNtNtB7_9pg_object14HyperbolicLineINtNtCs4TwWhthMkYr_4core7convert7TryFromNtBJ_6PgLineE8try_from
FNDA:0,_RNvXse_NtCs81zHBbp1AWX_11projgeom_rs8geometryNtNtB7_9pg_object10EuclidLineINtNtCs4TwWhthMkYr_4core7convert7TryFromNtBJ_6PgLineE8try_from
FNDA:0,_RNvXsf_NtCs81zHBbp1AWX_11projgeom_rs8geometryNtNtB7_9pg_object6PgLineINtNtCs4TwWhthMkYr_4core7convert7TryFromNtBJ_12EllipticLineE8try_from
FNDA:0,_RNvXsg_NtCs81zHBbp1AWX_11projgeom_rs8geometryNtNtB7_9pg_object6PgLineINtNtCs4TwWhthMkYr_4core7convert7TryFromNtBJ_14HyperbolicLineE8try_from
FNDA:0,_RNvXsh_NtCs81zHBbp1AWX_11projgeom_rs8geometryNtNtB7_9pg_object6PgLineINtNtCs4TwWhthMkYr_4core7convert7TryFromNtBJ_10EuclidLineE8try_from
FNDA:2,_RNvNtNtCskeUPLh1mzg6_11projgeom_rs8geometry5testss_19test_geometry_coord
FNDA:2,_RNvNtNtCskeUPLh1mzg6_11projgeom_rs8geometry5testss_26test_pgpoint_geometry_name
FNDA:2,_RNvNtNtCskeUPLh1mzg6_11projgeom_rs8geometry5testss_30test_euclidpoint_geometry_name
FNDA:2,_RNvNtNtCskeUPLh1mzg6_11projgeom_rs8geometry5testss_32test_ellipticpoint_geometry_name
FNDA:2,_RNvNtNtCskeUPLh1mzg6_11projgeom_rs8geometry5testss_34test_hyperbolicpoint_geometry_name
FNDA:0,_RNvXs0_NtCskeUPLh1mzg6_11projgeom_rs8geometryNtNtB7_9pg_object13EllipticPointNtB5_8Geometry5coord
FNDA:0,_RNvXs1_NtCskeUPLh1mzg6_11projgeom_rs8geometryNtNtB7_9pg_object12EllipticLineNtB5_8Geometry13geometry_name
FNDA:0,_RNvXs1_NtCskeUPLh1mzg6_11projgeom_rs8geometryNtNtB7_9pg_object12EllipticLineNtB5_8Geometry5coord
FNDA:0,_RNvXs2_NtCskeUPLh1mzg6_11projgeom_rs8geometryNtNtB7_9pg_object15HyperbolicPointNtB5_8Geometry5coord
FNDA:0,_RNvXs3_NtCskeUPLh1mzg6_11projgeom_rs8geometryNtNtB7_9pg_object14HyperbolicLineNtB5_8Geometry13geometry_name
FNDA:0,_RNvXs3_NtCskeUPLh1mzg6_11projgeom_rs8geometryNtNtB7_9pg_object14HyperbolicLineNtB5_8Geometry5coord
FNDA:0,_RNvXs4_NtCskeUPLh1mzg6_11projgeom_rs8geometryNtNtB7_9pg_object11EuclidPointNtB5_8Geometry5coord
FNDA:0,_RNvXs5_NtCskeUPLh1mzg6_11projgeom_rs8geometryNtNtB7_9pg_object10EuclidLineNtB5_8Geometry13geometry_name
FNDA:0,_RNvXs5_NtCskeUPLh1mzg6_11projgeom_rs8geometryNtNtB7_9pg_object10EuclidLineNtB5_8Geometry5coord
FNDA:0,_RNvXs6_NtCskeUPLh1mzg6_11projgeom_rs8geometryNtNtB7_9pg_object13EllipticPointINtNtCs4TwWhthMkYr_4core7convert7TryFromNtBJ_7PgPointE8try_from
FNDA:0,_RNvXs7_NtCskeUPLh1mzg6_11projgeom_rs8geometryNtNtB7_9pg_object15HyperbolicPointINtNtCs4TwWhthMkYr_4core7convert7TryFromNtBJ_7PgPointE8try_from
FNDA:0,_RNvXs8_NtCskeUPLh1mzg6_11projgeom_rs8geometryNtNtB7_9pg_object11EuclidPointINtNtCs4TwWhthMkYr_4core7convert7TryFromNtBJ_7PgPointE8try_from
FNDA:0,_RNvXs9_NtCskeUPLh1mzg6_11projgeom_rs8geometryNtNtB7_9pg_object7PgPointINtNtCs4TwWhthMkYr_4core7convert7TryFromNtBJ_13EllipticPointE8try_from
FNDA:0,_RNvXs_NtCskeUPLh1mzg6_11projgeom_rs8geometryNtNtB6_9pg_object6PgLineNtB4_8Geometry13geometry_name
FNDA:0,_RNvXs_NtCskeUPLh1mzg6_11projgeom_rs8geometryNtNtB6_9pg_object6PgLineNtB4_8Geometry5coord
FNDA:0,_RNvXsa_NtCskeUPLh1mzg6_11projgeom_rs8geometryNtNtB7_9pg_object7PgPointINtNtCs4TwWhthMkYr_4core7convert7TryFromNtBJ_15HyperbolicPointE8try_from
FNDA:0,_RNvXsb_NtCskeUPLh1mzg6_11projgeom_rs8geometryNtNtB7_9pg_object7PgPointINtNtCs4TwWhthMkYr_4core7convert7TryFromNtBJ_11EuclidPointE8try_from
FNDA:0,_RNvXsc_NtCskeUPLh1mzg6_11projgeom_rs8geometryNtNtB7_9pg_object12EllipticLineINtNtCs4TwWhthMkYr_4core7convert7TryFromNtBJ_6PgLineE8try_from
FNDA:0,_RNvXsd_NtCskeUPLh1mzg6_11projgeom_rs8geometryNtNtB7_9pg_object14HyperbolicLineINtNtCs4TwWhthMkYr_4core7convert7TryFromNtBJ_6PgLineE8try_from
FNDA:0,_RNvXse_NtCskeUPLh1mzg6_11projgeom_rs8geometryNtNtB7_9pg_object10EuclidLineINtNtCs4TwWhthMkYr_4core7convert7TryFromNtBJ_6PgLineE8try_from
FNDA:0,_RNvXsf_NtCskeUPLh1mzg6_11projgeom_rs8geometryNtNtB7_9pg_object6PgLineINtNtCs4TwWhthMkYr_4core7convert7TryFromNtBJ_12EllipticLineE8try_from
FNDA:0,_RNvXsg_NtCskeUPLh1mzg6_11projgeom_rs8geometryNtNtB7_9pg_object6PgLineINtNtCs4TwWhthMkYr_4core7convert7TryFromNtBJ_14HyperbolicLineE8try_from
FNDA:0,_RNvXsh_NtCskeUPLh1mzg6_11projgeom_rs8geometryNtNtB7_9pg_object6PgLineINtNtCs4TwWhthMkYr_4core7convert7TryFromNtBJ_10EuclidLineE8try_from
FNDA:2,_RNvXNtCskeUPLh1mzg6_11projgeom_rs8geometryNtNtB4_9pg_object7PgPointNtB2_8Geometry13geometry_name
FNDA:2,_RNvXNtCskeUPLh1mzg6_11projgeom_rs8geometryNtNtB4_9pg_object7PgPointNtB2_8Geometry5coord
FNDA:2,_RNvXs0_NtCskeUPLh1mzg6_11projgeom_rs8geometryNtNtB7_9pg_object13EllipticPointNtB5_8Geometry13geometry_name
FNDA:2,_RNvXs2_NtCskeUPLh1mzg6_11projgeom_rs8geometryNtNtB7_9pg_object15HyperbolicPointNtB5_8Geometry13geometry_name
FNDA:2,_RNvXs4_NtCskeUPLh1mzg6_11projgeom_rs8geometryNtNtB7_9pg_object11EuclidPointNtB5_8Geometry13geometry_name
FNF:33
FNH:10
DA:24,2
DA:25,2
DA:26,2
DA:28,2
DA:29,2
DA:30,2
DA:34,0
DA:35,0
DA:36,0
DA:38,0
DA:39,0
DA:40,0
DA:44,2
DA:45,2
DA:46,2
DA:48,0
DA:49,0
DA:50,0
DA:54,0
DA:55,0
DA:56,0
DA:58,0
DA:59,0
DA:60,0
DA:64,2
DA:65,2
DA:66,2
DA:68,0
DA:69,0
DA:70,0
DA:74,0
DA:75,0
DA:76,0
DA:78,0
DA:79,0
DA:80,0
DA:84,2
DA:85,2
DA:86,2
DA:88,0
DA:89,0
DA:90,0
DA:94,0
DA:95,0
DA:96,0
DA:98,0
DA:99,0
DA:100,0
DA:108,0
DA:109,0
DA:110,0
DA:116,0
DA:117,0
DA:118,0
DA:124,0
DA:125,0
DA:126,0
DA:132,0
DA:133,0
DA:134,0
DA:140,0
DA:141,0
DA:142,0
DA:148,0
DA:149,0
DA:150,0
DA:156,0
DA:157,0
DA:158,0
DA:164,0
DA:165,0
DA:166,0
DA:172,0
DA:173,0
DA:174,0
DA:180,0
DA:181,0
DA:182,0
DA:188,0
DA:189,0
DA:190,0
DA:196,0
DA:197,0
DA:198,0
DA:206,2
DA:207,2
DA:208,2
DA:209,2
DA:212,2
DA:213,2
DA:214,2
DA:215,2
DA:218,2
DA:219,2
DA:220,2
DA:221,2
DA:224,2
DA:225,2
DA:226,2
DA:227,2
DA:230,2
DA:231,2
DA:232,2
DA:233,2
BRF:0
BRH:0
LF:104
LH:35
end_of_record
SF:D:\github\rs\projgeom-rs\src\hyp_object.rs
FN:17,_RNCNvXNtCs81zHBbp1AWX_11projgeom_rs10hyp_objectNtNtB6_9pg_object15HyperbolicPointINtNtB6_8ck_plane25CayleyKleinPlanePrimitiveNtBL_14HyperbolicLineE4perp0Csc7RMaTNwWKe_3lib
FN:24,_RNCNvXs_NtCs81zHBbp1AWX_11projgeom_rs10hyp_objectNtNtB8_9pg_object14HyperbolicLineINtNtB8_8ck_plane25CayleyKleinPlanePrimitiveNtBN_15HyperbolicPointE4perp0Csc7RMaTNwWKe_3lib
FN:17,_RNCNvXNtCskeUPLh1mzg6_11projgeom_rs10hyp_objectNtNtB6_9pg_object15HyperbolicPointINtNtB6_8ck_plane25CayleyKleinPlanePrimitiveNtBL_14HyperbolicLineE4perp0B6_
FN:24,_RNCNvXs_NtCskeUPLh1mzg6_11projgeom_rs10hyp_objectNtNtB8_9pg_object14HyperbolicLineINtNtB8_8ck_plane25CayleyKleinPlanePrimitiveNtBN_15HyperbolicPointE4perp0B8_
FNDA:212,_RNCNvXNtCs81zHBbp1AWX_11projgeom_rs10hyp_objectNtNtB6_9pg_object15HyperbolicPointINtNtB6_8ck_plane25CayleyKleinPlanePrimitiveNtBL_14HyperbolicLineE4perp0Csc7RMaTNwWKe_3lib
FNDA:212,_RNCNvXs_NtCs81zHBbp1AWX_11projgeom_rs10hyp_objectNtNtB8_9pg_object14HyperbolicLineINtNtB8_8ck_plane25CayleyKleinPlanePrimitiveNtBN_15HyperbolicPointE4perp0Csc7RMaTNwWKe_3lib
FNDA:0,_RNCNvXNtCskeUPLh1mzg6_11projgeom_rs10hyp_objectNtNtB6_9pg_object15HyperbolicPointINtNtB6_8ck_plane25CayleyKleinPlanePrimitiveNtBL_14HyperbolicLineE4perp0B6_
FNDA:0,_RNCNvXs_NtCskeUPLh1mzg6_11projgeom_rs10hyp_objectNtNtB8_9pg_object14HyperbolicLineINtNtB8_8ck_plane25CayleyKleinPlanePrimitiveNtBN_15HyperbolicPointE4perp0B8_
FNF:2
FNH:2
DA:17,212
DA:18,212
DA:19,212
DA:20,212
DA:21,212
DA:22,212
DA:23,212
DA:24,212
DA:25,212
DA:26,212
DA:27,212
DA:28,212
DA:29,212
DA:30,212
BRF:0
BRH:0
LF:14
LH:14
end_of_record
SF:D:\github\rs\projgeom-rs\src\myck_object.rs
FN:18,_RNCNvXNtCs81zHBbp1AWX_11projgeom_rs11myck_objectNtNtB6_9pg_object9MyCKPointINtNtB6_8ck_plane25CayleyKleinPlanePrimitiveNtBM_8MyCKLineE4perp0Csc7RMaTNwWKe_3lib
FN:25,_RNCNvXs_NtCs81zHBbp1AWX_11projgeom_rs11myck_objectNtNtB8_9pg_object8MyCKLineINtNtB8_8ck_plane25CayleyKleinPlanePrimitiveNtBO_9MyCKPointE4perp0Csc7RMaTNwWKe_3lib
FN:18,_RNCNvXNtCskeUPLh1mzg6_11projgeom_rs11myck_objectNtNtB6_9pg_object9MyCKPointINtNtB6_8ck_plane25CayleyKleinPlanePrimitiveNtBM_8MyCKLineE4perp0B6_
FN:25,_RNCNvXs_NtCskeUPLh1mzg6_11projgeom_rs11myck_objectNtNtB8_9pg_object8MyCKLineINtNtB8_8ck_plane25CayleyKleinPlanePrimitiveNtBO_9MyCKPointE4perp0B8_
FNDA:212,_RNCNvXNtCs81zHBbp1AWX_11projgeom_rs11myck_objectNtNtB6_9pg_object9MyCKPointINtNtB6_8ck_plane25CayleyKleinPlanePrimitiveNtBM_8MyCKLineE4perp0Csc7RMaTNwWKe_3lib
FNDA:212,_RNCNvXs_NtCs81zHBbp1AWX_11projgeom_rs11myck_objectNtNtB8_9pg_object8MyCKLineINtNtB8_8ck_plane25CayleyKleinPlanePrimitiveNtBO_9MyCKPointE4perp0Csc7RMaTNwWKe_3lib
FNDA:0,_RNCNvXNtCskeUPLh1mzg6_11projgeom_rs11myck_objectNtNtB6_9pg_object9MyCKPointINtNtB6_8ck_plane25CayleyKleinPlanePrimitiveNtBM_8MyCKLineE4perp0B6_
FNDA:0,_RNCNvXs_NtCskeUPLh1mzg6_11projgeom_rs11myck_objectNtNtB8_9pg_object8MyCKLineINtNtB8_8ck_plane25CayleyKleinPlanePrimitiveNtBO_9MyCKPointE4perp0B8_
FNF:2
FNH:2
DA:18,212
DA:19,212
DA:20,212
DA:21,212
DA:22,212
DA:23,212
DA:24,212
DA:25,212
DA:26,212
DA:27,212
DA:28,212
DA:29,212
DA:30,212
DA:31,212
BRF:0
BRH:0
LF:14
LH:14
end_of_record
SF:D:\github\rs\projgeom-rs\src\persp_object.rs
FN:19,_RNCNvXs1_NtCs81zHBbp1AWX_11projgeom_rs12persp_objectNtNtB9_9pg_object9PerspLineINtNtB9_8ck_plane25CayleyKleinPlanePrimitiveNtBQ_10PerspPointE4perp0Csc7RMaTNwWKe_3lib
FN:112,_RNvNtNtCskeUPLh1mzg6_11projgeom_rs12persp_object5testss_19test_midpoint_basic
FN:156,_RNvNtNtCskeUPLh1mzg6_11projgeom_rs12persp_object5testss_22test_midpoint_diagonal
FN:145,_RNvNtNtCskeUPLh1mzg6_11projgeom_rs12persp_object5testss_22test_midpoint_vertical
FN:134,_RNvNtNtCskeUPLh1mzg6_11projgeom_rs12persp_object5testss_24test_midpoint_horizontal
FN:124,_RNvNtNtCskeUPLh1mzg6_11projgeom_rs12persp_object5testss_24test_midpoint_same_point
FN:102,_RNvNtNtCskeUPLh1mzg6_11projgeom_rs12persp_object5testss_27test_is_parallel_same_lines
FN:91,_RNvNtNtCskeUPLh1mzg6_11projgeom_rs12persp_object5testss_32test_is_parallel_different_lines
FN:18,_RNCNvXs0_NtCskeUPLh1mzg6_11projgeom_rs12persp_objectNtNtB9_9pg_object10PerspPointINtNtB9_8ck_plane25CayleyKleinPlanePrimitiveNtBQ_9PerspLineE4perp0B9_
FN:19,_RNCNvXs1_NtCskeUPLh1mzg6_11projgeom_rs12persp_objectNtNtB9_9pg_object9PerspLineINtNtB9_8ck_plane25CayleyKleinPlanePrimitiveNtBQ_10PerspPointE4perp0B9_
FN:50,_RNvMNtCskeUPLh1mzg6_11projgeom_rs12persp_objectNtNtB4_9pg_object9PerspLine11is_parallelB4_
FN:79,_RNvMs_NtCskeUPLh1mzg6_11projgeom_rs12persp_objectNtNtB6_9pg_object10PerspPoint8midpointB6_
FNDA:12,_RNCNvXs1_NtCs81zHBbp1AWX_11projgeom_rs12persp_objectNtNtB9_9pg_object9PerspLineINtNtB9_8ck_plane25CayleyKleinPlanePrimitiveNtBQ_10PerspPointE4perp0Csc7RMaTNwWKe_3lib
FNDA:2,_RNvNtNtCskeUPLh1mzg6_11projgeom_rs12persp_object5testss_19test_midpoint_basic
FNDA:2,_RNvNtNtCskeUPLh1mzg6_11projgeom_rs12persp_object5testss_22test_midpoint_diagonal
FNDA:2,_RNvNtNtCskeUPLh1mzg6_11projgeom_rs12persp_object5testss_22test_midpoint_vertical
FNDA:2,_RNvNtNtCskeUPLh1mzg6_11projgeom_rs12persp_object5testss_24test_midpoint_horizontal
FNDA:2,_RNvNtNtCskeUPLh1mzg6_11projgeom_rs12persp_object5testss_24test_midpoint_same_point
FNDA:2,_RNvNtNtCskeUPLh1mzg6_11projgeom_rs12persp_object5testss_27test_is_parallel_same_lines
FNDA:2,_RNvNtNtCskeUPLh1mzg6_11projgeom_rs12persp_object5testss_32test_is_parallel_different_lines
FNDA:0,_RNCNvXs0_NtCskeUPLh1mzg6_11projgeom_rs12persp_objectNtNtB9_9pg_object10PerspPointINtNtB9_8ck_plane25CayleyKleinPlanePrimitiveNtBQ_9PerspLineE4perp0B9_
FNDA:0,_RNCNvXs1_NtCskeUPLh1mzg6_11projgeom_rs12persp_objectNtNtB9_9pg_object9PerspLineINtNtB9_8ck_plane25CayleyKleinPlanePrimitiveNtBQ_10PerspPointE4perp0B9_
FNDA:4,_RNvMNtCskeUPLh1mzg6_11projgeom_rs12persp_objectNtNtB4_9pg_object9PerspLine11is_parallelB4_
FNDA:10,_RNvMs_NtCskeUPLh1mzg6_11projgeom_rs12persp_objectNtNtB6_9pg_object10PerspPoint8midpointB6_
FNF:11
FNH:10
DA:18,0
DA:19,12
DA:20,12
DA:21,12
DA:22,12
DA:23,12
DA:50,4
DA:51,4
DA:52,4
DA:79,10
DA:80,10
DA:81,10
DA:82,10
DA:83,10
DA:91,2
DA:93,2
DA:94,2
DA:95,2
DA:98,2
DA:99,2
DA:102,2
DA:104,2
DA:105,2
DA:106,2
DA:108,2
DA:109,2
DA:112,2
DA:113,2
DA:114,2
DA:115,2
DA:119,2
DA:120,2
DA:121,2
DA:124,2
DA:125,2
DA:126,2
DA:127,2
DA:130,2
DA:131,2
DA:134,2
DA:135,2
DA:136,2
DA:137,2
DA:140,2
DA:141,2
DA:142,2
DA:145,2
DA:146,2
DA:147,2
DA:148,2
DA:151,2
DA:152,2
DA:153,2
DA:156,2
DA:157,2
DA:158,2
DA:159,2
DA:162,2
DA:163,2
DA:164,2
BRF:0
BRH:0
LF:60
LH:59
end_of_record
SF:D:\github\rs\projgeom-rs\src\pg_object.rs
FN:121,_RNvMNtCs81zHBbp1AWX_11projgeom_rs9pg_objectNtB2_7PgPoint3newCsdkZpNUleQhb_10fuzz_tests
FN:121,_RNvMs6_NtCs81zHBbp1AWX_11projgeom_rs9pg_objectNtB5_6PgLine3newCsdkZpNUleQhb_10fuzz_tests
FN:25,_RNvNtCs81zHBbp1AWX_11projgeom_rs9pg_object11dot_productCsdkZpNUleQhb_10fuzz_tests
FN:72,_RNvNtCs81zHBbp1AWX_11projgeom_rs9pg_object13cross_productCsdkZpNUleQhb_10fuzz_tests
FN:96,_RNvNtCs81zHBbp1AWX_11projgeom_rs9pg_object17plucker_operationCsdkZpNUleQhb_10fuzz_tests
FN:182,_RNvXse_NtCs81zHBbp1AWX_11projgeom_rs9pg_objectNtB5_7PgPointINtNtB7_8pg_plane15ProjectivePlaneNtB5_6PgLinexE11parametrizeCsdkZpNUleQhb_10fuzz_tests
FN:199,_RNvXsf_NtCs81zHBbp1AWX_11projgeom_rs9pg_objectNtB5_7PgPointINtNtB7_8pg_plane24ProjectivePlanePrimitiveNtB5_6PgLineE4meetCsdkZpNUleQhb_10fuzz_tests
FN:194,_RNvXsf_NtCs81zHBbp1AWX_11projgeom_rs9pg_objectNtB5_7PgPointINtNtB7_8pg_plane24ProjectivePlanePrimitiveNtB5_6PgLineE8incidentCsdkZpNUleQhb_10fuzz_tests
FN:121,_RNvMNtCs81zHBbp1AWX_11projgeom_rs9pg_objectNtB2_7PgPoint3newB4_
FN:121,_RNvMs1A_NtCs81zHBbp1AWX_11projgeom_rs9pg_objectNtB6_11EuclidPoint3newB8_
FN:121,_RNvMs1I_NtCs81zHBbp1AWX_11projgeom_rs9pg_objectNtB6_10EuclidLine3newB8_
FN:121,_RNvMs6_NtCs81zHBbp1AWX_11projgeom_rs9pg_objectNtB5_6PgLine3newB7_
FN:121,_RNvMsC_NtCs81zHBbp1AWX_11projgeom_rs9pg_objectNtB5_13EllipticPoint3newB7_
FN:121,_RNvMsK_NtCs81zHBbp1AWX_11projgeom_rs9pg_objectNtB5_12EllipticLine3newB7_
FN:121,_RNvMsi_NtCs81zHBbp1AWX_11projgeom_rs9pg_objectNtB5_15HyperbolicPoint3newB7_
FN:121,_RNvMsq_NtCs81zHBbp1AWX_11projgeom_rs9pg_objectNtB5_14HyperbolicLine3newB7_
FN:25,_RNvNtCs81zHBbp1AWX_11projgeom_rs9pg_object11dot_productB3_
FN:72,_RNvNtCs81zHBbp1AWX_11projgeom_rs9pg_object13cross_productB3_
FN:199,_RNvXs1R_NtCs81zHBbp1AWX_11projgeom_rs9pg_objectNtB6_11EuclidPointINtNtB8_8pg_plane24ProjectivePlanePrimitiveNtB6_10EuclidLineE4meetB8_
FN:194,_RNvXs1T_NtCs81zHBbp1AWX_11projgeom_rs9pg_objectNtB6_10EuclidLineINtNtB8_8pg_plane24ProjectivePlanePrimitiveNtB6_11EuclidPointE8incidentB8_
FN:158,_RNvXs2_NtCs81zHBbp1AWX_11projgeom_rs9pg_objectNtB5_7PgPointNtNtCs4TwWhthMkYr_4core3cmp9PartialEq2eqB7_
FN:158,_RNvXsa_NtCs81zHBbp1AWX_11projgeom_rs9pg_objectNtB5_6PgLineNtNtCs4TwWhthMkYr_4core3cmp9PartialEq2eqB7_
FN:171,_RNvXse_NtCs81zHBbp1AWX_11projgeom_rs9pg_objectNtB5_7PgPointINtNtB7_8pg_plane15ProjectivePlaneNtB5_6PgLinexE3auxB7_
FN:177,_RNvXse_NtCs81zHBbp1AWX_11projgeom_rs9pg_objectNtB5_7PgPointINtNtB7_8pg_plane15ProjectivePlaneNtB5_6PgLinexE3dotB7_
FN:199,_RNvXsf_NtCs81zHBbp1AWX_11projgeom_rs9pg_objectNtB5_7PgPointINtNtB7_8pg_plane24ProjectivePlanePrimitiveNtB5_6PgLineE4meetB7_
FN:194,_RNvXsf_NtCs81zHBbp1AWX_11projgeom_rs9pg_objectNtB5_7PgPointINtNtB7_8pg_plane24ProjectivePlanePrimitiveNtB5_6PgLineE8incidentB7_
FN:199,_RNvXsh_NtCs81zHBbp1AWX_11projgeom_rs9pg_objectNtB5_6PgLineINtNtB7_8pg_plane24ProjectivePlanePrimitiveNtB5_7PgPointE4meetB7_
FN:121,_RNvMNtCs81zHBbp1AWX_11projgeom_rs9pg_objectNtB2_7PgPoint3newCsfZxzWFfcmPC_11integration
FN:121,_RNvMs1A_NtCs81zHBbp1AWX_11projgeom_rs9pg_objectNtB6_11EuclidPoint3newCsfZxzWFfcmPC_11integration
FN:121,_RNvMs1I_NtCs81zHBbp1AWX_11projgeom_rs9pg_objectNtB6_10EuclidLine3newCsfZxzWFfcmPC_11integration
FN:121,_RNvMs6_NtCs81zHBbp1AWX_11projgeom_rs9pg_objectNtB5_6PgLine3newCsfZxzWFfcmPC_11integration
FN:121,_RNvMsC_NtCs81zHBbp1AWX_11projgeom_rs9pg_objectNtB5_13EllipticPoint3newCsfZxzWFfcmPC_11integration
FN:121,_RNvMsK_NtCs81zHBbp1AWX_11projgeom_rs9pg_objectNtB5_12EllipticLine3newCsfZxzWFfcmPC_11integration
FN:25,_RNvNtCs81zHBbp1AWX_11projgeom_rs9pg_object11dot_productCsfZxzWFfcmPC_11integration
FN:72,_RNvNtCs81zHBbp1AWX_11projgeom_rs9pg_object13cross_productCsfZxzWFfcmPC_11integration
FN:96,_RNvNtCs81zHBbp1AWX_11projgeom_rs9pg_object17plucker_operationCsfZxzWFfcmPC_11integration
FN:171,_RNvXs1S_NtCs81zHBbp1AWX_11projgeom_rs9pg_objectNtB6_10EuclidLineINtNtB8_8pg_plane15ProjectivePlaneNtB6_11EuclidPointxE3auxCsfZxzWFfcmPC_11integration
FN:158,_RNvXs2_NtCs81zHBbp1AWX_11projgeom_rs9pg_objectNtB5_7PgPointNtNtCs4TwWhthMkYr_4core3cmp9PartialEq2eqCsfZxzWFfcmPC_11integration
FN:158,_RNvXsG_NtCs81zHBbp1AWX_11projgeom_rs9pg_objectNtB5_13EllipticPointNtNtCs4TwWhthMkYr_4core3cmp9PartialEq2eqCsfZxzWFfcmPC_11integration
FN:199,_RNvXsT_NtCs81zHBbp1AWX_11projgeom_rs9pg_objectNtB5_13EllipticPointINtNtB7_8pg_plane24ProjectivePlanePrimitiveNtB5_12EllipticLineE4meetCsfZxzWFfcmPC_11integration
FN:171,_RNvXsU_NtCs81zHBbp1AWX_11projgeom_rs9pg_objectNtB5_12EllipticLineINtNtB7_8pg_plane15ProjectivePlaneNtB5_13EllipticPointxE3auxCsfZxzWFfcmPC_11integration
FN:199,_RNvXsV_NtCs81zHBbp1AWX_11projgeom_rs9pg_objectNtB5_12EllipticLineINtNtB7_8pg_plane24ProjectivePlanePrimitiveNtB5_13EllipticPointE4meetCsfZxzWFfcmPC_11integration
FN:194,_RNvXsV_NtCs81zHBbp1AWX_11projgeom_rs9pg_objectNtB5_12EllipticLineINtNtB7_8pg_plane24ProjectivePlanePrimitiveNtB5_13EllipticPointE8incidentCsfZxzWFfcmPC_11integration
FN:158,_RNvXsa_NtCs81zHBbp1AWX_11projgeom_rs9pg_objectNtB5_6PgLineNtNtCs4TwWhthMkYr_4core3cmp9PartialEq2eqCsfZxzWFfcmPC_11integration
FN:182,_RNvXse_NtCs81zHBbp1AWX_11projgeom_rs9pg_objectNtB5_7PgPointINtNtB7_8pg_plane15ProjectivePlaneNtB5_6PgLinexE11parametrizeCsfZxzWFfcmPC_11integration
FN:171,_RNvXse_NtCs81zHBbp1AWX_11projgeom_rs9pg_objectNtB5_7PgPointINtNtB7_8pg_plane15ProjectivePlaneNtB5_6PgLinexE3auxCsfZxzWFfcmPC_11integration
FN:199,_RNvXsf_NtCs81zHBbp1AWX_11projgeom_rs9pg_objectNtB5_7PgPointINtNtB7_8pg_plane24ProjectivePlanePrimitiveNtB5_6PgLineE4meetCsfZxzWFfcmPC_11integration
FN:171,_RNvXsg_NtCs81zHBbp1AWX_11projgeom_rs9pg_objectNtB5_6PgLineINtNtB7_8pg_plane15ProjectivePlaneNtB5_7PgPointxE3auxCsfZxzWFfcmPC_11integration
FN:177,_RNvXsg_NtCs81zHBbp1AWX_11projgeom_rs9pg_objectNtB5_6PgLineINtNtB7_8pg_plane15ProjectivePlaneNtB5_7PgPointxE3dotCsfZxzWFfcmPC_11integration
FN:199,_RNvXsh_NtCs81zHBbp1AWX_11projgeom_rs9pg_objectNtB5_6PgLineINtNtB7_8pg_plane24ProjectivePlanePrimitiveNtB5_7PgPointE4meetCsfZxzWFfcmPC_11integration
FN:194,_RNvXsh_NtCs81zHBbp1AWX_11projgeom_rs9pg_objectNtB5_6PgLineINtNtB7_8pg_plane24ProjectivePlanePrimitiveNtB5_7PgPointE8incidentCsfZxzWFfcmPC_11integration
FN:121,_RNvMNtCs81zHBbp1AWX_11projgeom_rs9pg_objectNtB2_7PgPoint3newCsc7RMaTNwWKe_3lib
FN:121,_RNvMs14_NtCs81zHBbp1AWX_11projgeom_rs9pg_objectNtB6_8MyCKLine3newCsc7RMaTNwWKe_3lib
FN:121,_RNvMs1A_NtCs81zHBbp1AWX_11projgeom_rs9pg_objectNtB6_11EuclidPoint3newCsc7RMaTNwWKe_3lib
FN:121,_RNvMs1I_NtCs81zHBbp1AWX_11projgeom_rs9pg_objectNtB6_10EuclidLine3newCsc7RMaTNwWKe_3lib
FN:121,_RNvMs1g_NtCs81zHBbp1AWX_11projgeom_rs9pg_objectNtB6_10PerspPoint3newCsc7RMaTNwWKe_3lib
FN:121,_RNvMs1o_NtCs81zHBbp1AWX_11projgeom_rs9pg_objectNtB6_9PerspLine3newCsc7RMaTNwWKe_3lib
FN:121,_RNvMs6_NtCs81zHBbp1AWX_11projgeom_rs9pg_objectNtB5_6PgLine3newCsc7RMaTNwWKe_3lib
FN:121,_RNvMsC_NtCs81zHBbp1AWX_11projgeom_rs9pg_objectNtB5_13EllipticPoint3newCsc7RMaTNwWKe_3lib
FN:121,_RNvMsK_NtCs81zHBbp1AWX_11projgeom_rs9pg_objectNtB5_12EllipticLine3newCsc7RMaTNwWKe_3lib
FN:121,_RNvMsW_NtCs81zHBbp1AWX_11projgeom_rs9pg_objectNtB5_9MyCKPoint3newCsc7RMaTNwWKe_3lib
FN:121,_RNvMsi_NtCs81zHBbp1AWX_11projgeom_rs9pg_objectNtB5_15HyperbolicPoint3newCsc7RMaTNwWKe_3lib
FN:121,_RNvMsq_NtCs81zHBbp1AWX_11projgeom_rs9pg_objectNtB5_14HyperbolicLine3newCsc7RMaTNwWKe_3lib
FN:25,_RNvNtCs81zHBbp1AWX_11projgeom_rs9pg_object11dot_productCsc7RMaTNwWKe_3lib
FN:72,_RNvNtCs81zHBbp1AWX_11projgeom_rs9pg_object13cross_productCsc7RMaTNwWKe_3lib
FN:96,_RNvNtCs81zHBbp1AWX_11projgeom_rs9pg_object17plucker_operationCsc7RMaTNwWKe_3lib
FN:158,_RNvXs10_NtCs81zHBbp1AWX_11projgeom_rs9pg_objectNtB6_9MyCKPointNtNtCs4TwWhthMkYr_4core3cmp9PartialEq2eqCsc7RMaTNwWKe_3lib
FN:158,_RNvXs18_NtCs81zHBbp1AWX_11projgeom_rs9pg_objectNtB6_8MyCKLineNtNtCs4TwWhthMkYr_4core3cmp9PartialEq2eqCsc7RMaTNwWKe_3lib
FN:158,_RNvXs1E_NtCs81zHBbp1AWX_11projgeom_rs9pg_objectNtB6_11EuclidPointNtNtCs4TwWhthMkYr_4core3cmp9PartialEq2eqCsc7RMaTNwWKe_3lib
FN:182,_RNvXs1Q_NtCs81zHBbp1AWX_11projgeom_rs9pg_objectNtB6_11EuclidPointINtNtB8_8pg_plane15ProjectivePlaneNtB6_10EuclidLinexE11parametrizeCsc7RMaTNwWKe_3lib
FN:199,_RNvXs1R_NtCs81zHBbp1AWX_11projgeom_rs9pg_objectNtB6_11EuclidPointINtNtB8_8pg_plane24ProjectivePlanePrimitiveNtB6_10EuclidLineE4meetCsc7RMaTNwWKe_3lib
FN:194,_RNvXs1R_NtCs81zHBbp1AWX_11projgeom_rs9pg_objectNtB6_11EuclidPointINtNtB8_8pg_plane24ProjectivePlanePrimitiveNtB6_10EuclidLineE8incidentCsc7RMaTNwWKe_3lib
FN:171,_RNvXs1S_NtCs81zHBbp1AWX_11projgeom_rs9pg_objectNtB6_10EuclidLineINtNtB8_8pg_plane15ProjectivePlaneNtB6_11EuclidPointxE3auxCsc7RMaTNwWKe_3lib
FN:177,_RNvXs1S_NtCs81zHBbp1AWX_11projgeom_rs9pg_objectNtB6_10EuclidLineINtNtB8_8pg_plane15ProjectivePlaneNtB6_11EuclidPointxE3dotCsc7RMaTNwWKe_3lib
FN:199,_RNvXs1T_NtCs81zHBbp1AWX_11projgeom_rs9pg_objectNtB6_10EuclidLineINtNtB8_8pg_plane24ProjectivePlanePrimitiveNtB6_11EuclidPointE4meetCsc7RMaTNwWKe_3lib
FN:194,_RNvXs1T_NtCs81zHBbp1AWX_11projgeom_rs9pg_objectNtB6_10EuclidLineINtNtB8_8pg_plane24ProjectivePlanePrimitiveNtB6_11EuclidPointE8incidentCsc7RMaTNwWKe_3lib
FN:199,_RNvXs1d_NtCs81zHBbp1AWX_11projgeom_rs9pg_objectNtB6_9MyCKPointINtNtB8_8pg_plane24ProjectivePlanePrimitiveNtB6_8MyCKLineE4meetCsc7RMaTNwWKe_3lib
FN:194,_RNvXs1d_NtCs81zHBbp1AWX_11projgeom_rs9pg_objectNtB6_9MyCKPointINtNtB8_8pg_plane24ProjectivePlanePrimitiveNtB6_8MyCKLineE8incidentCsc7RMaTNwWKe_3lib
FN:199,_RNvXs1f_NtCs81zHBbp1AWX_11projgeom_rs9pg_objectNtB6_8MyCKLineINtNtB8_8pg_plane24ProjectivePlanePrimitiveNtB6_9MyCKPointE4meetCsc7RMaTNwWKe_3lib
FN:194,_RNvXs1f_NtCs81zHBbp1AWX_11projgeom_rs9pg_objectNtB6_8MyCKLineINtNtB8_8pg_plane24ProjectivePlanePrimitiveNtB6_9MyCKPointE8incidentCsc7RMaTNwWKe_3lib
FN:158,_RNvXs1k_NtCs81zHBbp1AWX_11projgeom_rs9pg_objectNtB6_10PerspPointNtNtCs4TwWhthMkYr_4core3cmp9PartialEq2eqCsc7RMaTNwWKe_3lib
FN:182,_RNvXs1w_NtCs81zHBbp1AWX_11projgeom_rs9pg_objectNtB6_10PerspPointINtNtB8_8pg_plane15ProjectivePlaneNtB6_9PerspLinexE11parametrizeCsc7RMaTNwWKe_3lib
FN:177,_RNvXs1w_NtCs81zHBbp1AWX_11projgeom_rs9pg_objectNtB6_10PerspPointINtNtB8_8pg_plane15ProjectivePlaneNtB6_9PerspLinexE3dotCsc7RMaTNwWKe_3lib
FN:199,_RNvXs1x_NtCs81zHBbp1AWX_11projgeom_rs9pg_objectNtB6_10PerspPointINtNtB8_8pg_plane24ProjectivePlanePrimitiveNtB6_9PerspLineE4meetCsc7RMaTNwWKe_3lib
FN:194,_RNvXs1x_NtCs81zHBbp1AWX_11projgeom_rs9pg_objectNtB6_10PerspPointINtNtB8_8pg_plane24ProjectivePlanePrimitiveNtB6_9PerspLineE8incidentCsc7RMaTNwWKe_3lib
FN:199,_RNvXs1z_NtCs81zHBbp1AWX_11projgeom_rs9pg_objectNtB6_9PerspLineINtNtB8_8pg_plane24ProjectivePlanePrimitiveNtB6_10PerspPointE4meetCsc7RMaTNwWKe_3lib
FN:194,_RNvXs1z_NtCs81zHBbp1AWX_11projgeom_rs9pg_objectNtB6_9PerspLineINtNtB8_8pg_plane24ProjectivePlanePrimitiveNtB6_10PerspPointE8incidentCsc7RMaTNwWKe_3lib
FN:158,_RNvXs2_NtCs81zHBbp1AWX_11projgeom_rs9pg_objectNtB5_7PgPointNtNtCs4TwWhthMkYr_4core3cmp9PartialEq2eqCsc7RMaTNwWKe_3lib
FN:199,_RNvXsB_NtCs81zHBbp1AWX_11projgeom_rs9pg_objectNtB5_14HyperbolicLineINtNtB7_8pg_plane24ProjectivePlanePrimitiveNtB5_15HyperbolicPointE4meetCsc7RMaTNwWKe_3lib
FN:194,_RNvXsB_NtCs81zHBbp1AWX_11projgeom_rs9pg_objectNtB5_14HyperbolicLineINtNtB7_8pg_plane24ProjectivePlanePrimitiveNtB5_15HyperbolicPointE8incidentCsc7RMaTNwWKe_3lib
FN:158,_RNvXsG_NtCs81zHBbp1AWX_11projgeom_rs9pg_objectNtB5_13EllipticPointNtNtCs4TwWhthMkYr_4core3cmp9PartialEq2eqCsc7RMaTNwWKe_3lib
FN:158,_RNvXsO_NtCs81zHBbp1AWX_11projgeom_rs9pg_objectNtB5_12EllipticLineNtNtCs4TwWhthMkYr_4core3cmp9PartialEq2eqCsc7RMaTNwWKe_3lib
FN:199,_RNvXsT_NtCs81zHBbp1AWX_11projgeom_rs9pg_objectNtB5_13EllipticPointINtNtB7_8pg_plane24ProjectivePlanePrimitiveNtB5_12EllipticLineE4meetCsc7RMaTNwWKe_3lib
FN:194,_RNvXsT_NtCs81zHBbp1AWX_11projgeom_rs9pg_objectNtB5_13EllipticPointINtNtB7_8pg_plane24ProjectivePlanePrimitiveNtB5_12EllipticLineE8incidentCsc7RMaTNwWKe_3lib
FN:199,_RNvXsV_NtCs81zHBbp1AWX_11projgeom_rs9pg_objectNtB5_12EllipticLineINtNtB7_8pg_plane24ProjectivePlanePrimitiveNtB5_13EllipticPointE4meetCsc7RMaTNwWKe_3lib
FN:194,_RNvXsV_NtCs81zHBbp1AWX_11projgeom_rs9pg_objectNtB5_12EllipticLineINtNtB7_8pg_plane24ProjectivePlanePrimitiveNtB5_13EllipticPointE8incidentCsc7RMaTNwWKe_3lib
FN:158,_RNvXsa_NtCs81zHBbp1AWX_11projgeom_rs9pg_objectNtB5_6PgLineNtNtCs4TwWhthMkYr_4core3cmp9PartialEq2eqCsc7RMaTNwWKe_3lib
FN:182,_RNvXse_NtCs81zHBbp1AWX_11projgeom_rs9pg_objectNtB5_7PgPointINtNtB7_8pg_plane15ProjectivePlaneNtB5_6PgLinexE11parametrizeCsc7RMaTNwWKe_3lib
FN:171,_RNvXse_NtCs81zHBbp1AWX_11projgeom_rs9pg_objectNtB5_7PgPointINtNtB7_8pg_plane15ProjectivePlaneNtB5_6PgLinexE3auxCsc7RMaTNwWKe_3lib
FN:177,_RNvXse_NtCs81zHBbp1AWX_11projgeom_rs9pg_objectNtB5_7PgPointINtNtB7_8pg_plane15ProjectivePlaneNtB5_6PgLinexE3dotCsc7RMaTNwWKe_3lib
FN:199,_RNvXsf_NtCs81zHBbp1AWX_11projgeom_rs9pg_objectNtB5_7PgPointINtNtB7_8pg_plane24ProjectivePlanePrimitiveNtB5_6PgLineE4meetCsc7RMaTNwWKe_3lib
FN:194,_RNvXsf_NtCs81zHBbp1AWX_11projgeom_rs9pg_objectNtB5_7PgPointINtNtB7_8pg_plane24ProjectivePlanePrimitiveNtB5_6PgLineE8incidentCsc7RMaTNwWKe_3lib
FN:182,_RNvXsg_NtCs81zHBbp1AWX_11projgeom_rs9pg_objectNtB5_6PgLineINtNtB7_8pg_plane15ProjectivePlaneNtB5_7PgPointxE11parametrizeCsc7RMaTNwWKe_3lib
FN:171,_RNvXsg_NtCs81zHBbp1AWX_11projgeom_rs9pg_objectNtB5_6PgLineINtNtB7_8pg_plane15ProjectivePlaneNtB5_7PgPointxE3auxCsc7RMaTNwWKe_3lib
FN:177,_RNvXsg_NtCs81zHBbp1AWX_11projgeom_rs9pg_objectNtB5_6PgLineINtNtB7_8pg_plane15ProjectivePlaneNtB5_7PgPointxE3dotCsc7RMaTNwWKe_3lib
FN:199,_RNvXsh_NtCs81zHBbp1AWX_11projgeom_rs9pg_objectNtB5_6PgLineINtNtB7_8pg_plane24ProjectivePlanePrimitiveNtB5_7PgPointE4meetCsc7RMaTNwWKe_3lib
FN:194,_RNvXsh_NtCs81zHBbp1AWX_11projgeom_rs9pg_objectNtB5_6PgLineINtNtB7_8pg_plane24ProjectivePlanePrimitiveNtB5_7PgPointE8incidentCsc7RMaTNwWKe_3lib
FN:158,_RNvXsm_NtCs81zHBbp1AWX_11projgeom_rs9pg_objectNtB5_15HyperbolicPointNtNtCs4TwWhthMkYr_4core3cmp9PartialEq2eqCsc7RMaTNwWKe_3lib
FN:158,_RNvXsu_NtCs81zHBbp1AWX_11projgeom_rs9pg_objectNtB5_14HyperbolicLineNtNtCs4TwWhthMkYr_4core3cmp9PartialEq2eqCsc7RMaTNwWKe_3lib
FN:199,_RNvXsz_NtCs81zHBbp1AWX_11projgeom_rs9pg_objectNtB5_15HyperbolicPointINtNtB7_8pg_plane24ProjectivePlanePrimitiveNtB5_14HyperbolicLineE4meetCsc7RMaTNwWKe_3lib
FN:194,_RNvXsz_NtCs81zHBbp1AWX_11projgeom_rs9pg_objectNtB5_15HyperbolicPointINtNtB7_8pg_plane24ProjectivePlanePrimitiveNtB5_14HyperbolicLineE8incidentCsc7RMaTNwWKe_3lib
FN:127,_RNvMNtCskeUPLh1mzg6_11projgeom_rs9pg_objectNtB2_7PgPoint11from_coordsB4_
FN:127,_RNvMs14_NtCskeUPLh1mzg6_11projgeom_rs9pg_objectNtB6_8MyCKLine11from_coordsB8_
FN:121,_RNvMs14_NtCskeUPLh1mzg6_11projgeom_rs9pg_objectNtB6_8MyCKLine3newB8_
FN:127,_RNvMs1A_NtCskeUPLh1mzg6_11projgeom_rs9pg_objectNtB6_11EuclidPoint11from_coordsB8_
FN:127,_RNvMs1I_NtCskeUPLh1mzg6_11projgeom_rs9pg_objectNtB6_10EuclidLine11from_coordsB8_
FN:127,_RNvMs1g_NtCskeUPLh1mzg6_11projgeom_rs9pg_objectNtB6_10PerspPoint11from_coordsB8_
FN:127,_RNvMs1o_NtCskeUPLh1mzg6_11projgeom_rs9pg_objectNtB6_9PerspLine11from_coordsB8_
FN:127,_RNvMs6_NtCskeUPLh1mzg6_11projgeom_rs9pg_objectNtB5_6PgLine11from_coordsB7_
FN:127,_RNvMsC_NtCskeUPLh1mzg6_11projgeom_rs9pg_objectNtB5_13EllipticPoint11from_coordsB7_
FN:127,_RNvMsK_NtCskeUPLh1mzg6_11projgeom_rs9pg_objectNtB5_12EllipticLine11from_coordsB7_
FN:121,_RNvMsK_NtCskeUPLh1mzg6_11projgeom_rs9pg_objectNtB5_12EllipticLine3newB7_
FN:127,_RNvMsW_NtCskeUPLh1mzg6_11projgeom_rs9pg_objectNtB5_9MyCKPoint11from_coordsB7_
FN:121,_RNvMsW_NtCskeUPLh1mzg6_11projgeom_rs9pg_objectNtB5_9MyCKPoint3newB7_
FN:127,_RNvMsi_NtCskeUPLh1mzg6_11projgeom_rs9pg_objectNtB5_15HyperbolicPoint11from_coordsB7_
FN:127,_RNvMsq_NtCskeUPLh1mzg6_11projgeom_rs9pg_objectNtB5_14HyperbolicLine11from_coordsB7_
FN:121,_RNvMsq_NtCskeUPLh1mzg6_11projgeom_rs9pg_objectNtB5_14HyperbolicLine3newB7_
FN:58,_RNvNtCskeUPLh1mzg6_11projgeom_rs9pg_object6cross2B3_
FN:141,_RNvXs0_NtCskeUPLh1mzg6_11projgeom_rs9pg_objectNtB5_7PgPointINtNtCs4TwWhthMkYr_4core7convert4FromTxxxEE4fromB7_
FN:158,_RNvXs10_NtCskeUPLh1mzg6_11projgeom_rs9pg_objectNtB6_9MyCKPointNtNtCs4TwWhthMkYr_4core3cmp9PartialEq2eqB8_
FN:134,_RNvXs15_NtCskeUPLh1mzg6_11projgeom_rs9pg_objectNtB6_8MyCKLineINtNtCs4TwWhthMkYr_4core7convert4FromAxj3_E4fromB8_
FN:141,_RNvXs16_NtCskeUPLh1mzg6_11projgeom_rs9pg_objectNtB6_8MyCKLineINtNtCs4TwWhthMkYr_4core7convert4FromTxxxEE4fromB8_
FN:150,_RNvXs17_NtCskeUPLh1mzg6_11projgeom_rs9pg_objectNtB6_8MyCKLineINtNtCs4TwWhthMkYr_4core7convert4FromRAxj3_E4fromB8_
FN:158,_RNvXs18_NtCskeUPLh1mzg6_11projgeom_rs9pg_objectNtB6_8MyCKLineNtNtCs4TwWhthMkYr_4core3cmp9PartialEq2eqB8_
FN:134,_RNvXs1B_NtCskeUPLh1mzg6_11projgeom_rs9pg_objectNtB6_11EuclidPointINtNtCs4TwWhthMkYr_4core7convert4FromAxj3_E4fromB8_
FN:141,_RNvXs1C_NtCskeUPLh1mzg6_11projgeom_rs9pg_objectNtB6_11EuclidPointINtNtCs4TwWhthMkYr_4core7convert4FromTxxxEE4fromB8_
FN:150,_RNvXs1D_NtCskeUPLh1mzg6_11projgeom_rs9pg_objectNtB6_11EuclidPointINtNtCs4TwWhthMkYr_4core7convert4FromRAxj3_E4fromB8_
FN:134,_RNvXs1J_NtCskeUPLh1mzg6_11projgeom_rs9pg_objectNtB6_10EuclidLineINtNtCs4TwWhthMkYr_4core7convert4FromAxj3_E4fromB8_
FN:141,_RNvXs1K_NtCskeUPLh1mzg6_11projgeom_rs9pg_objectNtB6_10EuclidLineINtNtCs4TwWhthMkYr_4core7convert4FromTxxxEE4fromB8_
FN:150,_RNvXs1L_NtCskeUPLh1mzg6_11projgeom_rs9pg_objectNtB6_10EuclidLineINtNtCs4TwWhthMkYr_4core7convert4FromRAxj3_E4fromB8_
FN:171,_RNvXs1Q_NtCskeUPLh1mzg6_11projgeom_rs9pg_objectNtB6_11EuclidPointINtNtB8_8pg_plane15ProjectivePlaneNtB6_10EuclidLinexE3auxB8_
FN:177,_RNvXs1Q_NtCskeUPLh1mzg6_11projgeom_rs9pg_objectNtB6_11EuclidPointINtNtB8_8pg_plane15ProjectivePlaneNtB6_10EuclidLinexE3dotB8_
FN:194,_RNvXs1R_NtCskeUPLh1mzg6_11projgeom_rs9pg_objectNtB6_11EuclidPointINtNtB8_8pg_plane24ProjectivePlanePrimitiveNtB6_10EuclidLineE8incidentB8_
FN:182,_RNvXs1S_NtCskeUPLh1mzg6_11projgeom_rs9pg_objectNtB6_10EuclidLineINtNtB8_8pg_plane15ProjectivePlaneNtB6_11EuclidPointxE11parametrizeB8_
FN:171,_RNvXs1S_NtCskeUPLh1mzg6_11projgeom_rs9pg_objectNtB6_10EuclidLineINtNtB8_8pg_plane15ProjectivePlaneNtB6_11EuclidPointxE3auxB8_
FN:177,_RNvXs1S_NtCskeUPLh1mzg6_11projgeom_rs9pg_objectNtB6_10EuclidLineINtNtB8_8pg_plane15ProjectivePlaneNtB6_11EuclidPointxE3dotB8_
FN:150,_RNvXs1_NtCskeUPLh1mzg6_11projgeom_rs9pg_objectNtB5_7PgPointINtNtCs4TwWhthMkYr_4core7convert4FromRAxj3_E4fromB7_
FN:182,_RNvXs1c_NtCskeUPLh1mzg6_11projgeom_rs9pg_objectNtB6_9MyCKPointINtNtB8_8pg_plane15ProjectivePlaneNtB6_8MyCKLinexE11parametrizeB8_
FN:171,_RNvXs1c_NtCskeUPLh1mzg6_11projgeom_rs9pg_objectNtB6_9MyCKPointINtNtB8_8pg_plane15ProjectivePlaneNtB6_8MyCKLinexE3auxB8_
FN:177,_RNvXs1c_NtCskeUPLh1mzg6_11projgeom_rs9pg_objectNtB6_9MyCKPointINtNtB8_8pg_plane15ProjectivePlaneNtB6_8MyCKLinexE3dotB8_
FN:199,_RNvXs1d_NtCskeUPLh1mzg6_11projgeom_rs9pg_objectNtB6_9MyCKPointINtNtB8_8pg_plane24ProjectivePlanePrimitiveNtB6_8MyCKLineE4meetB8_
FN:194,_RNvXs1d_NtCskeUPLh1mzg6_11projgeom_rs9pg_objectNtB6_9MyCKPointINtNtB8_8pg_plane24ProjectivePlanePrimitiveNtB6_8MyCKLineE8incidentB8_
FN:182,_RNvXs1e_NtCskeUPLh1mzg6_11projgeom_rs9pg_objectNtB6_8MyCKLineINtNtB8_8pg_plane15ProjectivePlaneNtB6_9MyCKPointxE11parametrizeB8_
FN:171,_RNvXs1e_NtCskeUPLh1mzg6_11projgeom_rs9pg_objectNtB6_8MyCKLineINtNtB8_8pg_plane15ProjectivePlaneNtB6_9MyCKPointxE3auxB8_
FN:177,_RNvXs1e_NtCskeUPLh1mzg6_11projgeom_rs9pg_objectNtB6_8MyCKLineINtNtB8_8pg_plane15ProjectivePlaneNtB6_9MyCKPointxE3dotB8_
FN:199,_RNvXs1f_NtCskeUPLh1mzg6_11projgeom_rs9pg_objectNtB6_8MyCKLineINtNtB8_8pg_plane24ProjectivePlanePrimitiveNtB6_9MyCKPointE4meetB8_
FN:194,_RNvXs1f_NtCskeUPLh1mzg6_11projgeom_rs9pg_objectNtB6_8MyCKLineINtNtB8_8pg_plane24ProjectivePlanePrimitiveNtB6_9MyCKPointE8incidentB8_
FN:134,_RNvXs1h_NtCskeUPLh1mzg6_11projgeom_rs9pg_objectNtB6_10PerspPointINtNtCs4TwWhthMkYr_4core7convert4FromAxj3_E4fromB8_
FN:141,_RNvXs1i_NtCskeUPLh1mzg6_11projgeom_rs9pg_objectNtB6_10PerspPointINtNtCs4TwWhthMkYr_4core7convert4FromTxxxEE4fromB8_
FN:150,_RNvXs1j_NtCskeUPLh1mzg6_11projgeom_rs9pg_objectNtB6_10PerspPointINtNtCs4TwWhthMkYr_4core7convert4FromRAxj3_E4fromB8_
FN:134,_RNvXs1p_NtCskeUPLh1mzg6_11projgeom_rs9pg_objectNtB6_9PerspLineINtNtCs4TwWhthMkYr_4core7convert4FromAxj3_E4fromB8_
FN:141,_RNvXs1q_NtCskeUPLh1mzg6_11projgeom_rs9pg_objectNtB6_9PerspLineINtNtCs4TwWhthMkYr_4core7convert4FromTxxxEE4fromB8_
FN:150,_RNvXs1r_NtCskeUPLh1mzg6_11projgeom_rs9pg_objectNtB6_9PerspLineINtNtCs4TwWhthMkYr_4core7convert4FromRAxj3_E4fromB8_
FN:158,_RNvXs1s_NtCskeUPLh1mzg6_11projgeom_rs9pg_objectNtB6_9PerspLineNtNtCs4TwWhthMkYr_4core3cmp9PartialEq2eqB8_
FN:171,_RNvXs1w_NtCskeUPLh1mzg6_11projgeom_rs9pg_objectNtB6_10PerspPointINtNtB8_8pg_plane15ProjectivePlaneNtB6_9PerspLinexE3auxB8_
FN:177,_RNvXs1w_NtCskeUPLh1mzg6_11projgeom_rs9pg_objectNtB6_10PerspPointINtNtB8_8pg_plane15ProjectivePlaneNtB6_9PerspLinexE3dotB8_
FN:182,_RNvXs1y_NtCskeUPLh1mzg6_11projgeom_rs9pg_objectNtB6_9PerspLineINtNtB8_8pg_plane15ProjectivePlaneNtB6_10PerspPointxE11parametrizeB8_
FN:171,_RNvXs1y_NtCskeUPLh1mzg6_11projgeom_rs9pg_objectNtB6_9PerspLineINtNtB8_8pg_plane15ProjectivePlaneNtB6_10PerspPointxE3auxB8_
FN:194,_RNvXs1z_NtCskeUPLh1mzg6_11projgeom_rs9pg_objectNtB6_9PerspLineINtNtB8_8pg_plane24ProjectivePlanePrimitiveNtB6_10PerspPointE8incidentB8_
FN:134,_RNvXs7_NtCskeUPLh1mzg6_11projgeom_rs9pg_objectNtB5_6PgLineINtNtCs4TwWhthMkYr_4core7convert4FromAxj3_E4fromB7_
FN:141,_RNvXs8_NtCskeUPLh1mzg6_11projgeom_rs9pg_objectNtB5_6PgLineINtNtCs4TwWhthMkYr_4core7convert4FromTxxxEE4fromB7_
FN:150,_RNvXs9_NtCskeUPLh1mzg6_11projgeom_rs9pg_objectNtB5_6PgLineINtNtCs4TwWhthMkYr_4core7convert4FromRAxj3_E4fromB7_
FN:182,_RNvXsA_NtCskeUPLh1mzg6_11projgeom_rs9pg_objectNtB5_14HyperbolicLineINtNtB7_8pg_plane15ProjectivePlaneNtB5_15HyperbolicPointxE11parametrizeB7_
FN:171,_RNvXsA_NtCskeUPLh1mzg6_11projgeom_rs9pg_objectNtB5_14HyperbolicLineINtNtB7_8pg_plane15ProjectivePlaneNtB5_15HyperbolicPointxE3auxB7_
FN:177,_RNvXsA_NtCskeUPLh1mzg6_11projgeom_rs9pg_objectNtB5_14HyperbolicLineINtNtB7_8pg_plane15ProjectivePlaneNtB5_15HyperbolicPointxE3dotB7_
FN:199,_RNvXsB_NtCskeUPLh1mzg6_11projgeom_rs9pg_objectNtB5_14HyperbolicLineINtNtB7_8pg_plane24ProjectivePlanePrimitiveNtB5_15HyperbolicPointE4meetB7_
FN:194,_RNvXsB_NtCskeUPLh1mzg6_11projgeom_rs9pg_objectNtB5_14HyperbolicLineINtNtB7_8pg_plane24ProjectivePlanePrimitiveNtB5_15HyperbolicPointE8incidentB7_
FN:134,_RNvXsD_NtCskeUPLh1mzg6_11projgeom_rs9pg_objectNtB5_13EllipticPointINtNtCs4TwWhthMkYr_4core7convert4FromAxj3_E4fromB7_
FN:141,_RNvXsE_NtCskeUPLh1mzg6_11projgeom_rs9pg_objectNtB5_13EllipticPointINtNtCs4TwWhthMkYr_4core7convert4FromTxxxEE4fromB7_
FN:150,_RNvXsF_NtCskeUPLh1mzg6_11projgeom_rs9pg_objectNtB5_13EllipticPointINtNtCs4TwWhthMkYr_4core7convert4FromRAxj3_E4fromB7_
FN:158,_RNvXsG_NtCskeUPLh1mzg6_11projgeom_rs9pg_objectNtB5_13EllipticPointNtNtCs4TwWhthMkYr_4core3cmp9PartialEq2eqB7_
FN:134,_RNvXsL_NtCskeUPLh1mzg6_11projgeom_rs9pg_objectNtB5_12EllipticLineINtNtCs4TwWhthMkYr_4core7convert4FromAxj3_E4fromB7_
FN:141,_RNvXsM_NtCskeUPLh1mzg6_11projgeom_rs9pg_objectNtB5_12EllipticLineINtNtCs4TwWhthMkYr_4core7convert4FromTxxxEE4fromB7_
FN:150,_RNvXsN_NtCskeUPLh1mzg6_11projgeom_rs9pg_objectNtB5_12EllipticLineINtNtCs4TwWhthMkYr_4core7convert4FromRAxj3_E4fromB7_
FN:158,_RNvXsO_NtCskeUPLh1mzg6_11projgeom_rs9pg_objectNtB5_12EllipticLineNtNtCs4TwWhthMkYr_4core3cmp9PartialEq2eqB7_
FN:182,_RNvXsS_NtCskeUPLh1mzg6_11projgeom_rs9pg_objectNtB5_13EllipticPointINtNtB7_8pg_plane15ProjectivePlaneNtB5_12EllipticLinexE11parametrizeB7_
FN:171,_RNvXsS_NtCskeUPLh1mzg6_11projgeom_rs9pg_objectNtB5_13EllipticPointINtNtB7_8pg_plane15ProjectivePlaneNtB5_12EllipticLinexE3auxB7_
FN:177,_RNvXsS_NtCskeUPLh1mzg6_11projgeom_rs9pg_objectNtB5_13EllipticPointINtNtB7_8pg_plane15ProjectivePlaneNtB5_12EllipticLinexE3dotB7_
FN:199,_RNvXsT_NtCskeUPLh1mzg6_11projgeom_rs9pg_objectNtB5_13EllipticPointINtNtB7_8pg_plane24ProjectivePlanePrimitiveNtB5_12EllipticLineE4meetB7_
FN:194,_RNvXsT_NtCskeUPLh1mzg6_11projgeom_rs9pg_objectNtB5_13EllipticPointINtNtB7_8pg_plane24ProjectivePlanePrimitiveNtB5_12EllipticLineE8incidentB7_
FN:182,_RNvXsU_NtCskeUPLh1mzg6_11projgeom_rs9pg_objectNtB5_12EllipticLineINtNtB7_8pg_plane15ProjectivePlaneNtB5_13EllipticPointxE11parametrizeB7_
FN:171,_RNvXsU_NtCskeUPLh1mzg6_11projgeom_rs9pg_objectNtB5_12EllipticLineINtNtB7_8pg_plane15ProjectivePlaneNtB5_13EllipticPointxE3auxB7_
FN:177,_RNvXsU_NtCskeUPLh1mzg6_11projgeom_rs9pg_objectNtB5_12EllipticLineINtNtB7_8pg_plane15ProjectivePlaneNtB5_13EllipticPointxE3dotB7_
FN:199,_RNvXsV_NtCskeUPLh1mzg6_11projgeom_rs9pg_objectNtB5_12EllipticLineINtNtB7_8pg_plane24ProjectivePlanePrimitiveNtB5_13EllipticPointE4meetB7_
FN:194,_RNvXsV_NtCskeUPLh1mzg6_11projgeom_rs9pg_objectNtB5_12EllipticLineINtNtB7_8pg_plane24ProjectivePlanePrimitiveNtB5_13EllipticPointE8incidentB7_
FN:134,_RNvXsX_NtCskeUPLh1mzg6_11projgeom_rs9pg_objectNtB5_9MyCKPointINtNtCs4TwWhthMkYr_4core7convert4FromAxj3_E4fromB7_
FN:141,_RNvXsY_NtCskeUPLh1mzg6_11projgeom_rs9pg_objectNtB5_9MyCKPointINtNtCs4TwWhthMkYr_4core7convert4FromTxxxEE4fromB7_
FN:150,_RNvXsZ_NtCskeUPLh1mzg6_11projgeom_rs9pg_objectNtB5_9MyCKPointINtNtCs4TwWhthMkYr_4core7convert4FromRAxj3_E4fromB7_
FN:134,_RNvXs_NtCskeUPLh1mzg6_11projgeom_rs9pg_objectNtB4_7PgPointINtNtCs4TwWhthMkYr_4core7convert4FromAxj3_E4fromB6_
FN:182,_RNvXsg_NtCskeUPLh1mzg6_11projgeom_rs9pg_objectNtB5_6PgLineINtNtB7_8pg_plane15ProjectivePlaneNtB5_7PgPointxE11parametrizeB7_
FN:134,_RNvXsj_NtCskeUPLh1mzg6_11projgeom_rs9pg_objectNtB5_15HyperbolicPointINtNtCs4TwWhthMkYr_4core7convert4FromAxj3_E4fromB7_
FN:141,_RNvXsk_NtCskeUPLh1mzg6_11projgeom_rs9pg_objectNtB5_15HyperbolicPointINtNtCs4TwWhthMkYr_4core7convert4FromTxxxEE4fromB7_
FN:150,_RNvXsl_NtCskeUPLh1mzg6_11projgeom_rs9pg_objectNtB5_15HyperbolicPointINtNtCs4TwWhthMkYr_4core7convert4FromRAxj3_E4fromB7_
FN:158,_RNvXsm_NtCskeUPLh1mzg6_11projgeom_rs9pg_objectNtB5_15HyperbolicPointNtNtCs4TwWhthMkYr_4core3cmp9PartialEq2eqB7_
FN:134,_RNvXsr_NtCskeUPLh1mzg6_11projgeom_rs9pg_objectNtB5_14HyperbolicLineINtNtCs4TwWhthMkYr_4core7convert4FromAxj3_E4fromB7_
FN:141,_RNvXss_NtCskeUPLh1mzg6_11projgeom_rs9pg_objectNtB5_14HyperbolicLineINtNtCs4TwWhthMkYr_4core7convert4FromTxxxEE4fromB7_
FN:150,_RNvXst_NtCskeUPLh1mzg6_11projgeom_rs9pg_objectNtB5_14HyperbolicLineINtNtCs4TwWhthMkYr_4core7convert4FromRAxj3_E4fromB7_
FN:158,_RNvXsu_NtCskeUPLh1mzg6_11projgeom_rs9pg_objectNtB5_14HyperbolicLineNtNtCs4TwWhthMkYr_4core3cmp9PartialEq2eqB7_
FN:182,_RNvXsy_NtCskeUPLh1mzg6_11projgeom_rs9pg_objectNtB5_15HyperbolicPointINtNtB7_8pg_plane15ProjectivePlaneNtB5_14HyperbolicLinexE11parametrizeB7_
FN:171,_RNvXsy_NtCskeUPLh1mzg6_11projgeom_rs9pg_objectNtB5_15HyperbolicPointINtNtB7_8pg_plane15ProjectivePlaneNtB5_14HyperbolicLinexE3auxB7_
FN:177,_RNvXsy_NtCskeUPLh1mzg6_11projgeom_rs9pg_objectNtB5_15HyperbolicPointINtNtB7_8pg_plane15ProjectivePlaneNtB5_14HyperbolicLinexE3dotB7_
FN:199,_RNvXsz_NtCskeUPLh1mzg6_11projgeom_rs9pg_objectNtB5_15HyperbolicPointINtNtB7_8pg_plane24ProjectivePlanePrimitiveNtB5_14HyperbolicLineE4meetB7_
FN:194,_RNvXsz_NtCskeUPLh1mzg6_11projgeom_rs9pg_objectNtB5_15HyperbolicPointINtNtB7_8pg_plane24ProjectivePlanePrimitiveNtB5_14HyperbolicLineE8incidentB7_
FN:121,_RNvMNtCskeUPLh1mzg6_11projgeom_rs9pg_objectNtB2_7PgPoint3newB4_
FN:121,_RNvMs1A_NtCskeUPLh1mzg6_11projgeom_rs9pg_objectNtB6_11EuclidPoint3newB8_
FN:121,_RNvMs1I_NtCskeUPLh1mzg6_11projgeom_rs9pg_objectNtB6_10EuclidLine3newB8_
FN:121,_RNvMs1g_NtCskeUPLh1mzg6_11projgeom_rs9pg_objectNtB6_10PerspPoint3newB8_
FN:121,_RNvMs1o_NtCskeUPLh1mzg6_11projgeom_rs9pg_objectNtB6_9PerspLine3newB8_
FN:121,_RNvMs6_NtCskeUPLh1mzg6_11projgeom_rs9pg_objectNtB5_6PgLine3newB7_
FN:121,_RNvMsC_NtCskeUPLh1mzg6_11projgeom_rs9pg_objectNtB5_13EllipticPoint3newB7_
FN:121,_RNvMsi_NtCskeUPLh1mzg6_11projgeom_rs9pg_objectNtB5_15HyperbolicPoint3newB7_
FN:25,_RNvNtCskeUPLh1mzg6_11projgeom_rs9pg_object11dot_productB3_
FN:72,_RNvNtCskeUPLh1mzg6_11projgeom_rs9pg_object13cross_productB3_
FN:96,_RNvNtCskeUPLh1mzg6_11projgeom_rs9pg_object17plucker_operationB3_
FN:44,_RNvNtCskeUPLh1mzg6_11projgeom_rs9pg_object4dot1B3_
FN:158,_RNvXs1E_NtCskeUPLh1mzg6_11projgeom_rs9pg_objectNtB6_11EuclidPointNtNtCs4TwWhthMkYr_4core3cmp9PartialEq2eqB8_
FN:158,_RNvXs1M_NtCskeUPLh1mzg6_11projgeom_rs9pg_objectNtB6_10EuclidLineNtNtCs4TwWhthMkYr_4core3cmp9PartialEq2eqB8_
FN:182,_RNvXs1Q_NtCskeUPLh1mzg6_11projgeom_rs9pg_objectNtB6_11EuclidPointINtNtB8_8pg_plane15ProjectivePlaneNtB6_10EuclidLinexE11parametrizeB8_
FN:199,_RNvXs1R_NtCskeUPLh1mzg6_11projgeom_rs9pg_objectNtB6_11EuclidPointINtNtB8_8pg_plane24ProjectivePlanePrimitiveNtB6_10EuclidLineE4meetB8_
FN:199,_RNvXs1T_NtCskeUPLh1mzg6_11projgeom_rs9pg_objectNtB6_10EuclidLineINtNtB8_8pg_plane24ProjectivePlanePrimitiveNtB6_11EuclidPointE4meetB8_
FN:194,_RNvXs1T_NtCskeUPLh1mzg6_11projgeom_rs9pg_objectNtB6_10EuclidLineINtNtB8_8pg_plane24ProjectivePlanePrimitiveNtB6_11EuclidPointE8incidentB8_
FN:158,_RNvXs1k_NtCskeUPLh1mzg6_11projgeom_rs9pg_objectNtB6_10PerspPointNtNtCs4TwWhthMkYr_4core3cmp9PartialEq2eqB8_
FN:182,_RNvXs1w_NtCskeUPLh1mzg6_11projgeom_rs9pg_objectNtB6_10PerspPointINtNtB8_8pg_plane15ProjectivePlaneNtB6_9PerspLinexE11parametrizeB8_
FN:199,_RNvXs1x_NtCskeUPLh1mzg6_11projgeom_rs9pg_objectNtB6_10PerspPointINtNtB8_8pg_plane24ProjectivePlanePrimitiveNtB6_9PerspLineE4meetB8_
FN:194,_RNvXs1x_NtCskeUPLh1mzg6_11projgeom_rs9pg_objectNtB6_10PerspPointINtNtB8_8pg_plane24ProjectivePlanePrimitiveNtB6_9PerspLineE8incidentB8_
FN:177,_RNvXs1y_NtCskeUPLh1mzg6_11projgeom_rs9pg_objectNtB6_9PerspLineINtNtB8_8pg_plane15ProjectivePlaneNtB6_10PerspPointxE3dotB8_
FN:199,_RNvXs1z_NtCskeUPLh1mzg6_11projgeom_rs9pg_objectNtB6_9PerspLineINtNtB8_8pg_plane24ProjectivePlanePrimitiveNtB6_10PerspPointE4meetB8_
FN:158,_RNvXs2_NtCskeUPLh1mzg6_11projgeom_rs9pg_objectNtB5_7PgPointNtNtCs4TwWhthMkYr_4core3cmp9PartialEq2eqB7_
FN:158,_RNvXsa_NtCskeUPLh1mzg6_11projgeom_rs9pg_objectNtB5_6PgLineNtNtCs4TwWhthMkYr_4core3cmp9PartialEq2eqB7_
FN:182,_RNvXse_NtCskeUPLh1mzg6_11projgeom_rs9pg_objectNtB5_7PgPointINtNtB7_8pg_plane15ProjectivePlaneNtB5_6PgLinexE11parametrizeB7_
FN:171,_RNvXse_NtCskeUPLh1mzg6_11projgeom_rs9pg_objectNtB5_7PgPointINtNtB7_8pg_plane15ProjectivePlaneNtB5_6PgLinexE3auxB7_
FN:177,_RNvXse_NtCskeUPLh1mzg6_11projgeom_rs9pg_objectNtB5_7PgPointINtNtB7_8pg_plane15ProjectivePlaneNtB5_6PgLinexE3dotB7_
FN:199,_RNvXsf_NtCskeUPLh1mzg6_11projgeom_rs9pg_objectNtB5_7PgPointINtNtB7_8pg_plane24ProjectivePlanePrimitiveNtB5_6PgLineE4meetB7_
FN:194,_RNvXsf_NtCskeUPLh1mzg6_11projgeom_rs9pg_objectNtB5_7PgPointINtNtB7_8pg_plane24ProjectivePlanePrimitiveNtB5_6PgLineE8incidentB7_
FN:171,_RNvXsg_NtCskeUPLh1mzg6_11projgeom_rs9pg_objectNtB5_6PgLineINtNtB7_8pg_plane15ProjectivePlaneNtB5_7PgPointxE3auxB7_
FN:177,_RNvXsg_NtCskeUPLh1mzg6_11projgeom_rs9pg_objectNtB5_6PgLineINtNtB7_8pg_plane15ProjectivePlaneNtB5_7PgPointxE3dotB7_
FN:199,_RNvXsh_NtCskeUPLh1mzg6_11projgeom_rs9pg_objectNtB5_6PgLineINtNtB7_8pg_plane24ProjectivePlanePrimitiveNtB5_7PgPointE4meetB7_
FN:194,_RNvXsh_NtCskeUPLh1mzg6_11projgeom_rs9pg_objectNtB5_6PgLineINtNtB7_8pg_plane24ProjectivePlanePrimitiveNtB5_7PgPointE8incidentB7_
FNDA:1412,_RNvMNtCs81zHBbp1AWX_11projgeom_rs9pg_objectNtB2_7PgPoint3newCsdkZpNUleQhb_10fuzz_tests
FNDA:404,_RNvMs6_NtCs81zHBbp1AWX_11projgeom_rs9pg_objectNtB5_6PgLine3newCsdkZpNUleQhb_10fuzz_tests
FNDA:202,_RNvNtCs81zHBbp1AWX_11projgeom_rs9pg_object11dot_productCsdkZpNUleQhb_10fuzz_tests
FNDA:202,_RNvNtCs81zHBbp1AWX_11projgeom_rs9pg_object13cross_productCsdkZpNUleQhb_10fuzz_tests
FNDA:202,_RNvNtCs81zHBbp1AWX_11projgeom_rs9pg_object17plucker_operationCsdkZpNUleQhb_10fuzz_tests
FNDA:202,_RNvXse_NtCs81zHBbp1AWX_11projgeom_rs9pg_objectNtB5_7PgPointINtNtB7_8pg_plane15ProjectivePlaneNtB5_6PgLinexE11parametrizeCsdkZpNUleQhb_10fuzz_tests
FNDA:202,_RNvXsf_NtCs81zHBbp1AWX_11projgeom_rs9pg_objectNtB5_7PgPointINtNtB7_8pg_plane24ProjectivePlanePrimitiveNtB5_6PgLineE4meetCsdkZpNUleQhb_10fuzz_tests
FNDA:202,_RNvXsf_NtCs81zHBbp1AWX_11projgeom_rs9pg_objectNtB5_7PgPointINtNtB7_8pg_plane24ProjectivePlanePrimitiveNtB5_6PgLineE8incidentCsdkZpNUleQhb_10fuzz_tests
FNDA:4,_RNvMNtCs81zHBbp1AWX_11projgeom_rs9pg_objectNtB2_7PgPoint3newB4_
FNDA:1612,_RNvMs1A_NtCs81zHBbp1AWX_11projgeom_rs9pg_objectNtB6_11EuclidPoint3newB8_
FNDA:2420,_RNvMs1I_NtCs81zHBbp1AWX_11projgeom_rs9pg_objectNtB6_10EuclidLine3newB8_
FNDA:2,_RNvMs6_NtCs81zHBbp1AWX_11projgeom_rs9pg_objectNtB5_6PgLine3newB7_
FNDA:0,_RNvMsC_NtCs81zHBbp1AWX_11projgeom_rs9pg_objectNtB5_13EllipticPoint3newB7_
FNDA:0,_RNvMsK_NtCs81zHBbp1AWX_11projgeom_rs9pg_objectNtB5_12EllipticLine3newB7_
FNDA:0,_RNvMsi_NtCs81zHBbp1AWX_11projgeom_rs9pg_objectNtB5_15HyperbolicPoint3newB7_
FNDA:0,_RNvMsq_NtCs81zHBbp1AWX_11projgeom_rs9pg_objectNtB5_14HyperbolicLine3newB7_
FNDA:1208,_RNvNtCs81zHBbp1AWX_11projgeom_rs9pg_object11dot_productB3_
FNDA:2420,_RNvNtCs81zHBbp1AWX_11projgeom_rs9pg_object13cross_productB3_
FNDA:2420,_RNvXs1R_NtCs81zHBbp1AWX_11projgeom_rs9pg_objectNtB6_11EuclidPointINtNtB8_8pg_plane24ProjectivePlanePrimitiveNtB6_10EuclidLineE4meetB8_
FNDA:1208,_RNvXs1T_NtCs81zHBbp1AWX_11projgeom_rs9pg_objectNtB6_10EuclidLineINtNtB8_8pg_plane24ProjectivePlanePrimitiveNtB6_11EuclidPointE8incidentB8_
FNDA:0,_RNvXs2_NtCs81zHBbp1AWX_11projgeom_rs9pg_objectNtB5_7PgPointNtNtCs4TwWhthMkYr_4core3cmp9PartialEq2eqB7_
FNDA:0,_RNvXsa_NtCs81zHBbp1AWX_11projgeom_rs9pg_objectNtB5_6PgLineNtNtCs4TwWhthMkYr_4core3cmp9PartialEq2eqB7_
FNDA:0,_RNvXse_NtCs81zHBbp1AWX_11projgeom_rs9pg_objectNtB5_7PgPointINtNtB7_8pg_plane15ProjectivePlaneNtB5_6PgLinexE3auxB7_
FNDA:0,_RNvXse_NtCs81zHBbp1AWX_11projgeom_rs9pg_objectNtB5_7PgPointINtNtB7_8pg_plane15ProjectivePlaneNtB5_6PgLinexE3dotB7_
FNDA:0,_RNvXsf_NtCs81zHBbp1AWX_11projgeom_rs9pg_objectNtB5_7PgPointINtNtB7_8pg_plane24ProjectivePlanePrimitiveNtB5_6PgLineE4meetB7_
FNDA:0,_RNvXsf_NtCs81zHBbp1AWX_11projgeom_rs9pg_objectNtB5_7PgPointINtNtB7_8pg_plane24ProjectivePlanePrimitiveNtB5_6PgLineE8incidentB7_
FNDA:0,_RNvXsh_NtCs81zHBbp1AWX_11projgeom_rs9pg_objectNtB5_6PgLineINtNtB7_8pg_plane24ProjectivePlanePrimitiveNtB5_7PgPointE4meetB7_
FNDA:184,_RNvMNtCs81zHBbp1AWX_11projgeom_rs9pg_objectNtB2_7PgPoint3newCsfZxzWFfcmPC_11integration
FNDA:4,_RNvMs1A_NtCs81zHBbp1AWX_11projgeom_rs9pg_objectNtB6_11EuclidPoint3newCsfZxzWFfcmPC_11integration
FNDA:6,_RNvMs1I_NtCs81zHBbp1AWX_11projgeom_rs9pg_objectNtB6_10EuclidLine3newCsfZxzWFfcmPC_11integration
FNDA:150,_RNvMs6_NtCs81zHBbp1AWX_11projgeom_rs9pg_objectNtB5_6PgLine3newCsfZxzWFfcmPC_11integration
FNDA:18,_RNvMsC_NtCs81zHBbp1AWX_11projgeom_rs9pg_objectNtB5_13EllipticPoint3newCsfZxzWFfcmPC_11integration
FNDA:16,_RNvMsK_NtCs81zHBbp1AWX_11projgeom_rs9pg_objectNtB5_12EllipticLine3newCsfZxzWFfcmPC_11integration
FNDA:94,_RNvNtCs81zHBbp1AWX_11projgeom_rs9pg_object11dot_productCsfZxzWFfcmPC_11integration
FNDA:206,_RNvNtCs81zHBbp1AWX_11projgeom_rs9pg_object13cross_productCsfZxzWFfcmPC_11integration
FNDA:18,_RNvNtCs81zHBbp1AWX_11projgeom_rs9pg_object17plucker_operationCsfZxzWFfcmPC_11integration
FNDA:2,_RNvXs1S_NtCs81zHBbp1AWX_11projgeom_rs9pg_objectNtB6_10EuclidLineINtNtB8_8pg_plane15ProjectivePlaneNtB6_11EuclidPointxE3auxCsfZxzWFfcmPC_11integration
FNDA:10,_RNvXs2_NtCs81zHBbp1AWX_11projgeom_rs9pg_objectNtB5_7PgPointNtNtCs4TwWhthMkYr_4core3cmp9PartialEq2eqCsfZxzWFfcmPC_11integration
FNDA:2,_RNvXsG_NtCs81zHBbp1AWX_11projgeom_rs9pg_objectNtB5_13EllipticPointNtNtCs4TwWhthMkYr_4core3cmp9PartialEq2eqCsfZxzWFfcmPC_11integration
FNDA:16,_RNvXsT_NtCs81zHBbp1AWX_11projgeom_rs9pg_objectNtB5_13EllipticPointINtNtB7_8pg_plane24ProjectivePlanePrimitiveNtB5_12EllipticLineE4meetCsfZxzWFfcmPC_11integration
FNDA:4,_RNvXsU_NtCs81zHBbp1AWX_11projgeom_rs9pg_objectNtB5_12EllipticLineINtNtB7_8pg_plane15ProjectivePlaneNtB5_13EllipticPointxE3auxCsfZxzWFfcmPC_11integration
FNDA:2,_RNvXsV_NtCs81zHBbp1AWX_11projgeom_rs9pg_objectNtB5_12EllipticLineINtNtB7_8pg_plane24ProjectivePlanePrimitiveNtB5_13EllipticPointE4meetCsfZxzWFfcmPC_11integration
FNDA:2,_RNvXsV_NtCs81zHBbp1AWX_11projgeom_rs9pg_objectNtB5_12EllipticLineINtNtB7_8pg_plane24ProjectivePlanePrimitiveNtB5_13EllipticPointE8incidentCsfZxzWFfcmPC_11integration
FNDA:2,_RNvXsa_NtCs81zHBbp1AWX_11projgeom_rs9pg_objectNtB5_6PgLineNtNtCs4TwWhthMkYr_4core3cmp9PartialEq2eqCsfZxzWFfcmPC_11integration
FNDA:18,_RNvXse_NtCs81zHBbp1AWX_11projgeom_rs9pg_objectNtB5_7PgPointINtNtB7_8pg_plane15ProjectivePlaneNtB5_6PgLinexE11parametrizeCsfZxzWFfcmPC_11integration
FNDA:2,_RNvXse_NtCs81zHBbp1AWX_11projgeom_rs9pg_objectNtB5_7PgPointINtNtB7_8pg_plane15ProjectivePlaneNtB5_6PgLinexE3auxCsfZxzWFfcmPC_11integration
FNDA:138,_RNvXsf_NtCs81zHBbp1AWX_11projgeom_rs9pg_objectNtB5_7PgPointINtNtB7_8pg_plane24ProjectivePlanePrimitiveNtB5_6PgLineE4meetCsfZxzWFfcmPC_11integration
FNDA:18,_RNvXsg_NtCs81zHBbp1AWX_11projgeom_rs9pg_objectNtB5_6PgLineINtNtB7_8pg_plane15ProjectivePlaneNtB5_7PgPointxE3auxCsfZxzWFfcmPC_11integration
FNDA:36,_RNvXsg_NtCs81zHBbp1AWX_11projgeom_rs9pg_objectNtB5_6PgLineINtNtB7_8pg_plane15ProjectivePlaneNtB5_7PgPointxE3dotCsfZxzWFfcmPC_11integration
FNDA:36,_RNvXsh_NtCs81zHBbp1AWX_11projgeom_rs9pg_objectNtB5_6PgLineINtNtB7_8pg_plane24ProjectivePlanePrimitiveNtB5_7PgPointE4meetCsfZxzWFfcmPC_11integration
FNDA:56,_RNvXsh_NtCs81zHBbp1AWX_11projgeom_rs9pg_objectNtB5_6PgLineINtNtB7_8pg_plane24ProjectivePlanePrimitiveNtB5_7PgPointE8incidentCsfZxzWFfcmPC_11integration
FNDA:8880,_RNvMNtCs81zHBbp1AWX_11projgeom_rs9pg_objectNtB2_7PgPoint3newCsc7RMaTNwWKe_3lib
FNDA:256,_RNvMs14_NtCs81zHBbp1AWX_11projgeom_rs9pg_objectNtB6_8MyCKLine3newCsc7RMaTNwWKe_3lib
FNDA:2210,_RNvMs1A_NtCs81zHBbp1AWX_11projgeom_rs9pg_objectNtB6_11EuclidPoint3newCsc7RMaTNwWKe_3lib
FNDA:2014,_RNvMs1I_NtCs81zHBbp1AWX_11projgeom_rs9pg_objectNtB6_10EuclidLine3newCsc7RMaTNwWKe_3lib
FNDA:622,_RNvMs1g_NtCs81zHBbp1AWX_11projgeom_rs9pg_objectNtB6_10PerspPoint3newCsc7RMaTNwWKe_3lib
FNDA:434,_RNvMs1o_NtCs81zHBbp1AWX_11projgeom_rs9pg_objectNtB6_9PerspLine3newCsc7RMaTNwWKe_3lib
FNDA:5480,_RNvMs6_NtCs81zHBbp1AWX_11projgeom_rs9pg_objectNtB5_6PgLine3newCsc7RMaTNwWKe_3lib
FNDA:2656,_RNvMsC_NtCs81zHBbp1AWX_11projgeom_rs9pg_objectNtB5_13EllipticPoint3newCsc7RMaTNwWKe_3lib
FNDA:3056,_RNvMsK_NtCs81zHBbp1AWX_11projgeom_rs9pg_objectNtB5_12EllipticLine3newCsc7RMaTNwWKe_3lib
FNDA:456,_RNvMsW_NtCs81zHBbp1AWX_11projgeom_rs9pg_objectNtB5_9MyCKPoint3newCsc7RMaTNwWKe_3lib
FNDA:456,_RNvMsi_NtCs81zHBbp1AWX_11projgeom_rs9pg_objectNtB5_15HyperbolicPoint3newCsc7RMaTNwWKe_3lib
FNDA:256,_RNvMsq_NtCs81zHBbp1AWX_11projgeom_rs9pg_objectNtB5_14HyperbolicLine3newCsc7RMaTNwWKe_3lib
FNDA:8367,_RNvNtCs81zHBbp1AWX_11projgeom_rs9pg_object11dot_productCsc7RMaTNwWKe_3lib
FNDA:15592,_RNvNtCs81zHBbp1AWX_11projgeom_rs9pg_object13cross_productCsc7RMaTNwWKe_3lib
FNDA:2648,_RNvNtCs81zHBbp1AWX_11projgeom_rs9pg_object17plucker_operationCsc7RMaTNwWKe_3lib
FNDA:202,_RNvXs10_NtCs81zHBbp1AWX_11projgeom_rs9pg_objectNtB6_9MyCKPointNtNtCs4TwWhthMkYr_4core3cmp9PartialEq2eqCsc7RMaTNwWKe_3lib
FNDA:2,_RNvXs18_NtCs81zHBbp1AWX_11projgeom_rs9pg_objectNtB6_8MyCKLineNtNtCs4TwWhthMkYr_4core3cmp9PartialEq2eqCsc7RMaTNwWKe_3lib
FNDA:202,_RNvXs1E_NtCs81zHBbp1AWX_11projgeom_rs9pg_objectNtB6_11EuclidPointNtNtCs4TwWhthMkYr_4core3cmp9PartialEq2eqCsc7RMaTNwWKe_3lib
FNDA:400,_RNvXs1Q_NtCs81zHBbp1AWX_11projgeom_rs9pg_objectNtB6_11EuclidPointINtNtB8_8pg_plane15ProjectivePlaneNtB6_10EuclidLinexE11parametrizeCsc7RMaTNwWKe_3lib
FNDA:1814,_RNvXs1R_NtCs81zHBbp1AWX_11projgeom_rs9pg_objectNtB6_11EuclidPointINtNtB8_8pg_plane24ProjectivePlanePrimitiveNtB6_10EuclidLineE4meetCsc7RMaTNwWKe_3lib
FNDA:602,_RNvXs1R_NtCs81zHBbp1AWX_11projgeom_rs9pg_objectNtB6_11EuclidPointINtNtB8_8pg_plane24ProjectivePlanePrimitiveNtB6_10EuclidLineE8incidentCsc7RMaTNwWKe_3lib
FNDA:400,_RNvXs1S_NtCs81zHBbp1AWX_11projgeom_rs9pg_objectNtB6_10EuclidLineINtNtB8_8pg_plane15ProjectivePlaneNtB6_11EuclidPointxE3auxCsc7RMaTNwWKe_3lib
FNDA:800,_RNvXs1S_NtCs81zHBbp1AWX_11projgeom_rs9pg_objectNtB6_10EuclidLineINtNtB8_8pg_plane15ProjectivePlaneNtB6_11EuclidPointxE3dotCsc7RMaTNwWKe_3lib
FNDA:404,_RNvXs1T_NtCs81zHBbp1AWX_11projgeom_rs9pg_objectNtB6_10EuclidLineINtNtB8_8pg_plane24ProjectivePlanePrimitiveNtB6_11EuclidPointE4meetCsc7RMaTNwWKe_3lib
FNDA:199,_RNvXs1T_NtCs81zHBbp1AWX_11projgeom_rs9pg_objectNtB6_10EuclidLineINtNtB8_8pg_plane24ProjectivePlanePrimitiveNtB6_11EuclidPointE8incidentCsc7RMaTNwWKe_3lib
FNDA:38,_RNvXs1d_NtCs81zHBbp1AWX_11projgeom_rs9pg_objectNtB6_9MyCKPointINtNtB8_8pg_plane24ProjectivePlanePrimitiveNtB6_8MyCKLineE4meetCsc7RMaTNwWKe_3lib
FNDA:12,_RNvXs1d_NtCs81zHBbp1AWX_11projgeom_rs9pg_objectNtB6_9MyCKPointINtNtB8_8pg_plane24ProjectivePlanePrimitiveNtB6_8MyCKLineE8incidentCsc7RMaTNwWKe_3lib
FNDA:38,_RNvXs1f_NtCs81zHBbp1AWX_11projgeom_rs9pg_objectNtB6_8MyCKLineINtNtB8_8pg_plane24ProjectivePlanePrimitiveNtB6_9MyCKPointE4meetCsc7RMaTNwWKe_3lib
FNDA:12,_RNvXs1f_NtCs81zHBbp1AWX_11projgeom_rs9pg_objectNtB6_8MyCKLineINtNtB8_8pg_plane24ProjectivePlanePrimitiveNtB6_9MyCKPointE8incidentCsc7RMaTNwWKe_3lib
FNDA:2,_RNvXs1k_NtCs81zHBbp1AWX_11projgeom_rs9pg_objectNtB6_10PerspPointNtNtCs4TwWhthMkYr_4core3cmp9PartialEq2eqCsc7RMaTNwWKe_3lib
FNDA:12,_RNvXs1w_NtCs81zHBbp1AWX_11projgeom_rs9pg_objectNtB6_10PerspPointINtNtB8_8pg_plane15ProjectivePlaneNtB6_9PerspLinexE11parametrizeCsc7RMaTNwWKe_3lib
FNDA:24,_RNvXs1w_NtCs81zHBbp1AWX_11projgeom_rs9pg_objectNtB6_10PerspPointINtNtB8_8pg_plane15ProjectivePlaneNtB6_9PerspLinexE3dotCsc7RMaTNwWKe_3lib
FNDA:434,_RNvXs1x_NtCs81zHBbp1AWX_11projgeom_rs9pg_objectNtB6_10PerspPointINtNtB8_8pg_plane24ProjectivePlanePrimitiveNtB6_9PerspLineE4meetCsc7RMaTNwWKe_3lib
FNDA:2,_RNvXs1x_NtCs81zHBbp1AWX_11projgeom_rs9pg_objectNtB6_10PerspPointINtNtB8_8pg_plane24ProjectivePlanePrimitiveNtB6_9PerspLineE8incidentCsc7RMaTNwWKe_3lib
FNDA:4,_RNvXs1z_NtCs81zHBbp1AWX_11projgeom_rs9pg_objectNtB6_9PerspLineINtNtB8_8pg_plane24ProjectivePlanePrimitiveNtB6_10PerspPointE4meetCsc7RMaTNwWKe_3lib
FNDA:610,_RNvXs1z_NtCs81zHBbp1AWX_11projgeom_rs9pg_objectNtB6_9PerspLineINtNtB8_8pg_plane24ProjectivePlanePrimitiveNtB6_10PerspPointE8incidentCsc7RMaTNwWKe_3lib
FNDA:1618,_RNvXs2_NtCs81zHBbp1AWX_11projgeom_rs9pg_objectNtB5_7PgPointNtNtCs4TwWhthMkYr_4core3cmp9PartialEq2eqCsc7RMaTNwWKe_3lib
FNDA:38,_RNvXsB_NtCs81zHBbp1AWX_11projgeom_rs9pg_objectNtB5_14HyperbolicLineINtNtB7_8pg_plane24ProjectivePlanePrimitiveNtB5_15HyperbolicPointE4meetCsc7RMaTNwWKe_3lib
FNDA:12,_RNvXsB_NtCs81zHBbp1AWX_11projgeom_rs9pg_objectNtB5_14HyperbolicLineINtNtB7_8pg_plane24ProjectivePlanePrimitiveNtB5_15HyperbolicPointE8incidentCsc7RMaTNwWKe_3lib
FNDA:602,_RNvXsG_NtCs81zHBbp1AWX_11projgeom_rs9pg_objectNtB5_13EllipticPointNtNtCs4TwWhthMkYr_4core3cmp9PartialEq2eqCsc7RMaTNwWKe_3lib
FNDA:2,_RNvXsO_NtCs81zHBbp1AWX_11projgeom_rs9pg_objectNtB5_12EllipticLineNtNtCs4TwWhthMkYr_4core3cmp9PartialEq2eqCsc7RMaTNwWKe_3lib
FNDA:2838,_RNvXsT_NtCs81zHBbp1AWX_11projgeom_rs9pg_objectNtB5_13EllipticPointINtNtB7_8pg_plane24ProjectivePlanePrimitiveNtB5_12EllipticLineE4meetCsc7RMaTNwWKe_3lib
FNDA:12,_RNvXsT_NtCs81zHBbp1AWX_11projgeom_rs9pg_objectNtB5_13EllipticPointINtNtB7_8pg_plane24ProjectivePlanePrimitiveNtB5_12EllipticLineE8incidentCsc7RMaTNwWKe_3lib
FNDA:638,_RNvXsV_NtCs81zHBbp1AWX_11projgeom_rs9pg_objectNtB5_12EllipticLineINtNtB7_8pg_plane24ProjectivePlanePrimitiveNtB5_13EllipticPointE4meetCsc7RMaTNwWKe_3lib
FNDA:812,_RNvXsV_NtCs81zHBbp1AWX_11projgeom_rs9pg_objectNtB5_12EllipticLineINtNtB7_8pg_plane24ProjectivePlanePrimitiveNtB5_13EllipticPointE8incidentCsc7RMaTNwWKe_3lib
FNDA:618,_RNvXsa_NtCs81zHBbp1AWX_11projgeom_rs9pg_objectNtB5_6PgLineNtNtCs4TwWhthMkYr_4core3cmp9PartialEq2eqCsc7RMaTNwWKe_3lib
FNDA:1612,_RNvXse_NtCs81zHBbp1AWX_11projgeom_rs9pg_objectNtB5_7PgPointINtNtB7_8pg_plane15ProjectivePlaneNtB5_6PgLinexE11parametrizeCsc7RMaTNwWKe_3lib
FNDA:404,_RNvXse_NtCs81zHBbp1AWX_11projgeom_rs9pg_objectNtB5_7PgPointINtNtB7_8pg_plane15ProjectivePlaneNtB5_6PgLinexE3auxCsc7RMaTNwWKe_3lib
FNDA:8,_RNvXse_NtCs81zHBbp1AWX_11projgeom_rs9pg_objectNtB5_7PgPointINtNtB7_8pg_plane15ProjectivePlaneNtB5_6PgLinexE3dotCsc7RMaTNwWKe_3lib
FNDA:4022,_RNvXsf_NtCs81zHBbp1AWX_11projgeom_rs9pg_objectNtB5_7PgPointINtNtB7_8pg_plane24ProjectivePlanePrimitiveNtB5_6PgLineE4meetCsc7RMaTNwWKe_3lib
FNDA:816,_RNvXsf_NtCs81zHBbp1AWX_11projgeom_rs9pg_objectNtB5_7PgPointINtNtB7_8pg_plane24ProjectivePlanePrimitiveNtB5_6PgLineE8incidentCsc7RMaTNwWKe_3lib
FNDA:12,_RNvXsg_NtCs81zHBbp1AWX_11projgeom_rs9pg_objectNtB5_6PgLineINtNtB7_8pg_plane15ProjectivePlaneNtB5_7PgPointxE11parametrizeCsc7RMaTNwWKe_3lib
FNDA:804,_RNvXsg_NtCs81zHBbp1AWX_11projgeom_rs9pg_objectNtB5_6PgLineINtNtB7_8pg_plane15ProjectivePlaneNtB5_7PgPointxE3auxCsc7RMaTNwWKe_3lib
FNDA:808,_RNvXsg_NtCs81zHBbp1AWX_11projgeom_rs9pg_objectNtB5_6PgLineINtNtB7_8pg_plane15ProjectivePlaneNtB5_7PgPointxE3dotCsc7RMaTNwWKe_3lib
FNDA:622,_RNvXsh_NtCs81zHBbp1AWX_11projgeom_rs9pg_objectNtB5_6PgLineINtNtB7_8pg_plane24ProjectivePlanePrimitiveNtB5_7PgPointE4meetCsc7RMaTNwWKe_3lib
FNDA:2616,_RNvXsh_NtCs81zHBbp1AWX_11projgeom_rs9pg_objectNtB5_6PgLineINtNtB7_8pg_plane24ProjectivePlanePrimitiveNtB5_7PgPointE8incidentCsc7RMaTNwWKe_3lib
FNDA:202,_RNvXsm_NtCs81zHBbp1AWX_11projgeom_rs9pg_objectNtB5_15HyperbolicPointNtNtCs4TwWhthMkYr_4core3cmp9PartialEq2eqCsc7RMaTNwWKe_3lib
FNDA:2,_RNvXsu_NtCs81zHBbp1AWX_11projgeom_rs9pg_objectNtB5_14HyperbolicLineNtNtCs4TwWhthMkYr_4core3cmp9PartialEq2eqCsc7RMaTNwWKe_3lib
FNDA:38,_RNvXsz_NtCs81zHBbp1AWX_11projgeom_rs9pg_objectNtB5_15HyperbolicPointINtNtB7_8pg_plane24ProjectivePlanePrimitiveNtB5_14HyperbolicLineE4meetCsc7RMaTNwWKe_3lib
FNDA:12,_RNvXsz_NtCs81zHBbp1AWX_11projgeom_rs9pg_objectNtB5_15HyperbolicPointINtNtB7_8pg_plane24ProjectivePlanePrimitiveNtB5_14HyperbolicLineE8incidentCsc7RMaTNwWKe_3lib
FNDA:0,_RNvMNtCskeUPLh1mzg6_11projgeom_rs9pg_objectNtB2_7PgPoint11from_coordsB4_
FNDA:0,_RNvMs14_NtCskeUPLh1mzg6_11projgeom_rs9pg_objectNtB6_8MyCKLine11from_coordsB8_
FNDA:0,_RNvMs14_NtCskeUPLh1mzg6_11projgeom_rs9pg_objectNtB6_8MyCKLine3newB8_
FNDA:0,_RNvMs1A_NtCskeUPLh1mzg6_11projgeom_rs9pg_objectNtB6_11EuclidPoint11from_coordsB8_
FNDA:0,_RNvMs1I_NtCskeUPLh1mzg6_11projgeom_rs9pg_objectNtB6_10EuclidLine11from_coordsB8_
FNDA:0,_RNvMs1g_NtCskeUPLh1mzg6_11projgeom_rs9pg_objectNtB6_10PerspPoint11from_coordsB8_
FNDA:0,_RNvMs1o_NtCskeUPLh1mzg6_11projgeom_rs9pg_objectNtB6_9PerspLine11from_coordsB8_
FNDA:0,_RNvMs6_NtCskeUPLh1mzg6_11projgeom_rs9pg_objectNtB5_6PgLine11from_coordsB7_
FNDA:0,_RNvMsC_NtCskeUPLh1mzg6_11projgeom_rs9pg_objectNtB5_13EllipticPoint11from_coordsB7_
FNDA:0,_RNvMsK_NtCskeUPLh1mzg6_11projgeom_rs9pg_objectNtB5_12EllipticLine11from_coordsB7_
FNDA:0,_RNvMsK_NtCskeUPLh1mzg6_11projgeom_rs9pg_objectNtB5_12EllipticLine3newB7_
FNDA:0,_RNvMsW_NtCskeUPLh1mzg6_11projgeom_rs9pg_objectNtB5_9MyCKPoint11from_coordsB7_
FNDA:0,_RNvMsW_NtCskeUPLh1mzg6_11projgeom_rs9pg_objectNtB5_9MyCKPoint3newB7_
FNDA:0,_RNvMsi_NtCskeUPLh1mzg6_11projgeom_rs9pg_objectNtB5_15HyperbolicPoint11from_coordsB7_
FNDA:0,_RNvMsq_NtCskeUPLh1mzg6_11projgeom_rs9pg_objectNtB5_14HyperbolicLine11from_coordsB7_
FNDA:0,_RNvMsq_NtCskeUPLh1mzg6_11projgeom_rs9pg_objectNtB5_14HyperbolicLine3newB7_
FNDA:0,_RNvNtCskeUPLh1mzg6_11projgeom_rs9pg_object6cross2B3_
FNDA:0,_RNvXs0_NtCskeUPLh1mzg6_11projgeom_rs9pg_objectNtB5_7PgPointINtNtCs4TwWhthMkYr_4core7convert4FromTxxxEE4fromB7_
FNDA:0,_RNvXs10_NtCskeUPLh1mzg6_11projgeom_rs9pg_objectNtB6_9MyCKPointNtNtCs4TwWhthMkYr_4core3cmp9PartialEq2eqB8_
FNDA:0,_RNvXs15_NtCskeUPLh1mzg6_11projgeom_rs9pg_objectNtB6_8MyCKLineINtNtCs4TwWhthMkYr_4core7convert4FromAxj3_E4fromB8_
FNDA:0,_RNvXs16_NtCskeUPLh1mzg6_11projgeom_rs9pg_objectNtB6_8MyCKLineINtNtCs4TwWhthMkYr_4core7convert4FromTxxxEE4fromB8_
FNDA:0,_RNvXs17_NtCskeUPLh1mzg6_11projgeom_rs9pg_objectNtB6_8MyCKLineINtNtCs4TwWhthMkYr_4core7convert4FromRAxj3_E4fromB8_
FNDA:0,_RNvXs18_NtCskeUPLh1mzg6_11projgeom_rs9pg_objectNtB6_8MyCKLineNtNtCs4TwWhthMkYr_4core3cmp9PartialEq2eqB8_
FNDA:0,_RNvXs1B_NtCskeUPLh1mzg6_11projgeom_rs9pg_objectNtB6_11EuclidPointINtNtCs4TwWhthMkYr_4core7convert4FromAxj3_E4fromB8_
FNDA:0,_RNvXs1C_NtCskeUPLh1mzg6_11projgeom_rs9pg_objectNtB6_11EuclidPointINtNtCs4TwWhthMkYr_4core7convert4FromTxxxEE4fromB8_
FNDA:0,_RNvXs1D_NtCskeUPLh1mzg6_11projgeom_rs9pg_objectNtB6_11EuclidPointINtNtCs4TwWhthMkYr_4core7convert4FromRAxj3_E4fromB8_
FNDA:0,_RNvXs1J_NtCskeUPLh1mzg6_11projgeom_rs9pg_objectNtB6_10EuclidLineINtNtCs4TwWhthMkYr_4core7convert4FromAxj3_E4fromB8_
FNDA:0,_RNvXs1K_NtCskeUPLh1mzg6_11projgeom_rs9pg_objectNtB6_10EuclidLineINtNtCs4TwWhthMkYr_4core7convert4FromTxxxEE4fromB8_
FNDA:0,_RNvXs1L_NtCskeUPLh1mzg6_11projgeom_rs9pg_objectNtB6_10EuclidLineINtNtCs4TwWhthMkYr_4core7convert4FromRAxj3_E4fromB8_
FNDA:0,_RNvXs1Q_NtCskeUPLh1mzg6_11projgeom_rs9pg_objectNtB6_11EuclidPointINtNtB8_8pg_plane15ProjectivePlaneNtB6_10EuclidLinexE3auxB8_
FNDA:0,_RNvXs1Q_NtCskeUPLh1mzg6_11projgeom_rs9pg_objectNtB6_11EuclidPointINtNtB8_8pg_plane15ProjectivePlaneNtB6_10EuclidLinexE3dotB8_
FNDA:0,_RNvXs1R_NtCskeUPLh1mzg6_11projgeom_rs9pg_objectNtB6_11EuclidPointINtNtB8_8pg_plane24ProjectivePlanePrimitiveNtB6_10EuclidLineE8incidentB8_
FNDA:0,_RNvXs1S_NtCskeUPLh1mzg6_11projgeom_rs9pg_objectNtB6_10EuclidLineINtNtB8_8pg_plane15ProjectivePlaneNtB6_11EuclidPointxE11parametrizeB8_
FNDA:0,_RNvXs1S_NtCskeUPLh1mzg6_11projgeom_rs9pg_objectNtB6_10EuclidLineINtNtB8_8pg_plane15ProjectivePlaneNtB6_11EuclidPointxE3auxB8_
FNDA:0,_RNvXs1S_NtCskeUPLh1mzg6_11projgeom_rs9pg_objectNtB6_10EuclidLineINtNtB8_8pg_plane15ProjectivePlaneNtB6_11EuclidPointxE3dotB8_
FNDA:0,_RNvXs1_NtCskeUPLh1mzg6_11projgeom_rs9pg_objectNtB5_7PgPointINtNtCs4TwWhthMkYr_4core7convert4FromRAxj3_E4fromB7_
FNDA:0,_RNvXs1c_NtCskeUPLh1mzg6_11projgeom_rs9pg_objectNtB6_9MyCKPointINtNtB8_8pg_plane15ProjectivePlaneNtB6_8MyCKLinexE11parametrizeB8_
FNDA:0,_RNvXs1c_NtCskeUPLh1mzg6_11projgeom_rs9pg_objectNtB6_9MyCKPointINtNtB8_8pg_plane15ProjectivePlaneNtB6_8MyCKLinexE3auxB8_
FNDA:0,_RNvXs1c_NtCskeUPLh1mzg6_11projgeom_rs9pg_objectNtB6_9MyCKPointINtNtB8_8pg_plane15ProjectivePlaneNtB6_8MyCKLinexE3dotB8_
FNDA:0,_RNvXs1d_NtCskeUPLh1mzg6_11projgeom_rs9pg_objectNtB6_9MyCKPointINtNtB8_8pg_plane24ProjectivePlanePrimitiveNtB6_8MyCKLineE4meetB8_
FNDA:0,_RNvXs1d_NtCskeUPLh1mzg6_11projgeom_rs9pg_objectNtB6_9MyCKPointINtNtB8_8pg_plane24ProjectivePlanePrimitiveNtB6_8MyCKLineE8incidentB8_
FNDA:0,_RNvXs1e_NtCskeUPLh1mzg6_11projgeom_rs9pg_objectNtB6_8MyCKLineINtNtB8_8pg_plane15ProjectivePlaneNtB6_9MyCKPointxE11parametrizeB8_
FNDA:0,_RNvXs1e_NtCskeUPLh1mzg6_11projgeom_rs9pg_objectNtB6_8MyCKLineINtNtB8_8pg_plane15ProjectivePlaneNtB6_9MyCKPointxE3auxB8_
FNDA:0,_RNvXs1e_NtCskeUPLh1mzg6_11projgeom_rs9pg_objectNtB6_8MyCKLineINtNtB8_8pg_plane15ProjectivePlaneNtB6_9MyCKPointxE3dotB8_
FNDA:0,_RNvXs1f_NtCskeUPLh1mzg6_11projgeom_rs9pg_objectNtB6_8MyCKLineINtNtB8_8pg_plane24ProjectivePlanePrimitiveNtB6_9MyCKPointE4meetB8_
FNDA:0,_RNvXs1f_NtCskeUPLh1mzg6_11projgeom_rs9pg_objectNtB6_8MyCKLineINtNtB8_8pg_plane24ProjectivePlanePrimitiveNtB6_9MyCKPointE8incidentB8_
FNDA:0,_RNvXs1h_NtCskeUPLh1mzg6_11projgeom_rs9pg_objectNtB6_10PerspPointINtNtCs4TwWhthMkYr_4core7convert4FromAxj3_E4fromB8_
FNDA:0,_RNvXs1i_NtCskeUPLh1mzg6_11projgeom_rs9pg_objectNtB6_10PerspPointINtNtCs4TwWhthMkYr_4core7convert4FromTxxxEE4fromB8_
FNDA:0,_RNvXs1j_NtCskeUPLh1mzg6_11projgeom_rs9pg_objectNtB6_10PerspPointINtNtCs4TwWhthMkYr_4core7convert4FromRAxj3_E4fromB8_
FNDA:0,_RNvXs1p_NtCskeUPLh1mzg6_11projgeom_rs9pg_objectNtB6_9PerspLineINtNtCs4TwWhthMkYr_4core7convert4FromAxj3_E4fromB8_
FNDA:0,_RNvXs1q_NtCskeUPLh1mzg6_11projgeom_rs9pg_objectNtB6_9PerspLineINtNtCs4TwWhthMkYr_4core7convert4FromTxxxEE4fromB8_
FNDA:0,_RNvXs1r_NtCskeUPLh1mzg6_11projgeom_rs9pg_objectNtB6_9PerspLineINtNtCs4TwWhthMkYr_4core7convert4FromRAxj3_E4fromB8_
FNDA:0,_RNvXs1s_NtCskeUPLh1mzg6_11projgeom_rs9pg_objectNtB6_9PerspLineNtNtCs4TwWhthMkYr_4core3cmp9PartialEq2eqB8_
FNDA:0,_RNvXs1w_NtCskeUPLh1mzg6_11projgeom_rs9pg_objectNtB6_10PerspPointINtNtB8_8pg_plane15ProjectivePlaneNtB6_9PerspLinexE3auxB8_
FNDA:0,_RNvXs1w_NtCskeUPLh1mzg6_11projgeom_rs9pg_objectNtB6_10PerspPointINtNtB8_8pg_plane15ProjectivePlaneNtB6_9PerspLinexE3dotB8_
FNDA:0,_RNvXs1y_NtCskeUPLh1mzg6_11projgeom_rs9pg_objectNtB6_9PerspLineINtNtB8_8pg_plane15ProjectivePlaneNtB6_10PerspPointxE11parametrizeB8_
FNDA:0,_RNvXs1y_NtCskeUPLh1mzg6_11projgeom_rs9pg_objectNtB6_9PerspLineINtNtB8_8pg_plane15ProjectivePlaneNtB6_10PerspPointxE3auxB8_
FNDA:0,_RNvXs1z_NtCskeUPLh1mzg6_11projgeom_rs9pg_objectNtB6_9PerspLineINtNtB8_8pg_plane24ProjectivePlanePrimitiveNtB6_10PerspPointE8incidentB8_
FNDA:0,_RNvXs7_NtCskeUPLh1mzg6_11projgeom_rs9pg_objectNtB5_6PgLineINtNtCs4TwWhthMkYr_4core7convert4FromAxj3_E4fromB7_
FNDA:0,_RNvXs8_NtCskeUPLh1mzg6_11projgeom_rs9pg_objectNtB5_6PgLineINtNtCs4TwWhthMkYr_4core7convert4FromTxxxEE4fromB7_
FNDA:0,_RNvXs9_NtCskeUPLh1mzg6_11projgeom_rs9pg_objectNtB5_6PgLineINtNtCs4TwWhthMkYr_4core7convert4FromRAxj3_E4fromB7_
FNDA:0,_RNvXsA_NtCskeUPLh1mzg6_11projgeom_rs9pg_objectNtB5_14HyperbolicLineINtNtB7_8pg_plane15ProjectivePlaneNtB5_15HyperbolicPointxE11parametrizeB7_
FNDA:0,_RNvXsA_NtCskeUPLh1mzg6_11projgeom_rs9pg_objectNtB5_14HyperbolicLineINtNtB7_8pg_plane15ProjectivePlaneNtB5_15HyperbolicPointxE3auxB7_
FNDA:0,_RNvXsA_NtCskeUPLh1mzg6_11projgeom_rs9pg_objectNtB5_14HyperbolicLineINtNtB7_8pg_plane15ProjectivePlaneNtB5_15HyperbolicPointxE3dotB7_
FNDA:0,_RNvXsB_NtCskeUPLh1mzg6_11projgeom_rs9pg_objectNtB5_14HyperbolicLineINtNtB7_8pg_plane24ProjectivePlanePrimitiveNtB5_15HyperbolicPointE4meetB7_
FNDA:0,_RNvXsB_NtCskeUPLh1mzg6_11projgeom_rs9pg_objectNtB5_14HyperbolicLineINtNtB7_8pg_plane24ProjectivePlanePrimitiveNtB5_15HyperbolicPointE8incidentB7_
FNDA:0,_RNvXsD_NtCskeUPLh1mzg6_11projgeom_rs9pg_objectNtB5_13EllipticPointINtNtCs4TwWhthMkYr_4core7convert4FromAxj3_E4fromB7_
FNDA:0,_RNvXsE_NtCskeUPLh1mzg6_11projgeom_rs9pg_objectNtB5_13EllipticPointINtNtCs4TwWhthMkYr_4core7convert4FromTxxxEE4fromB7_
FNDA:0,_RNvXsF_NtCskeUPLh1mzg6_11projgeom_rs9pg_objectNtB5_13EllipticPointINtNtCs4TwWhthMkYr_4core7convert4FromRAxj3_E4fromB7_
FNDA:0,_RNvXsG_NtCskeUPLh1mzg6_11projgeom_rs9pg_objectNtB5_13EllipticPointNtNtCs4TwWhthMkYr_4core3cmp9PartialEq2eqB7_
FNDA:0,_RNvXsL_NtCskeUPLh1mzg6_11projgeom_rs9pg_objectNtB5_12EllipticLineINtNtCs4TwWhthMkYr_4core7convert4FromAxj3_E4fromB7_
FNDA:0,_RNvXsM_NtCskeUPLh1mzg6_11projgeom_rs9pg_objectNtB5_12EllipticLineINtNtCs4TwWhthMkYr_4core7convert4FromTxxxEE4fromB7_
FNDA:0,_RNvXsN_NtCskeUPLh1mzg6_11projgeom_rs9pg_objectNtB5_12EllipticLineINtNtCs4TwWhthMkYr_4core7convert4FromRAxj3_E4fromB7_
FNDA:0,_RNvXsO_NtCskeUPLh1mzg6_11projgeom_rs9pg_objectNtB5_12EllipticLineNtNtCs4TwWhthMkYr_4core3cmp9PartialEq2eqB7_
FNDA:0,_RNvXsS_NtCskeUPLh1mzg6_11projgeom_rs9pg_objectNtB5_13EllipticPointINtNtB7_8pg_plane15ProjectivePlaneNtB5_12EllipticLinexE11parametrizeB7_
FNDA:0,_RNvXsS_NtCskeUPLh1mzg6_11projgeom_rs9pg_objectNtB5_13EllipticPointINtNtB7_8pg_plane15ProjectivePlaneNtB5_12EllipticLinexE3auxB7_
FNDA:0,_RNvXsS_NtCskeUPLh1mzg6_11projgeom_rs9pg_objectNtB5_13EllipticPointINtNtB7_8pg_plane15ProjectivePlaneNtB5_12EllipticLinexE3dotB7_
FNDA:0,_RNvXsT_NtCskeUPLh1mzg6_11projgeom_rs9pg_objectNtB5_13EllipticPointINtNtB7_8pg_plane24ProjectivePlanePrimitiveNtB5_12EllipticLineE4meetB7_
FNDA:0,_RNvXsT_NtCskeUPLh1mzg6_11projgeom_rs9pg_objectNtB5_13EllipticPointINtNtB7_8pg_plane24ProjectivePlanePrimitiveNtB5_12EllipticLineE8incidentB7_
FNDA:0,_RNvXsU_NtCskeUPLh1mzg6_11projgeom_rs9pg_objectNtB5_12EllipticLineINtNtB7_8pg_plane15ProjectivePlaneNtB5_13EllipticPointxE11parametrizeB7_
FNDA:0,_RNvXsU_NtCskeUPLh1mzg6_11projgeom_rs9pg_objectNtB5_12EllipticLineINtNtB7_8pg_plane15ProjectivePlaneNtB5_13EllipticPointxE3auxB7_
FNDA:0,_RNvXsU_NtCskeUPLh1mzg6_11projgeom_rs9pg_objectNtB5_12EllipticLineINtNtB7_8pg_plane15ProjectivePlaneNtB5_13EllipticPointxE3dotB7_
FNDA:0,_RNvXsV_NtCskeUPLh1mzg6_11projgeom_rs9pg_objectNtB5_12EllipticLineINtNtB7_8pg_plane24ProjectivePlanePrimitiveNtB5_13EllipticPointE4meetB7_
FNDA:0,_RNvXsV_NtCskeUPLh1mzg6_11projgeom_rs9pg_objectNtB5_12EllipticLineINtNtB7_8pg_plane24ProjectivePlanePrimitiveNtB5_13EllipticPointE8incidentB7_
FNDA:0,_RNvXsX_NtCskeUPLh1mzg6_11projgeom_rs9pg_objectNtB5_9MyCKPointINtNtCs4TwWhthMkYr_4core7convert4FromAxj3_E4fromB7_
FNDA:0,_RNvXsY_NtCskeUPLh1mzg6_11projgeom_rs9pg_objectNtB5_9MyCKPointINtNtCs4TwWhthMkYr_4core7convert4FromTxxxEE4fromB7_
FNDA:0,_RNvXsZ_NtCskeUPLh1mzg6_11projgeom_rs9pg_objectNtB5_9MyCKPointINtNtCs4TwWhthMkYr_4core7convert4FromRAxj3_E4fromB7_
FNDA:0,_RNvXs_NtCskeUPLh1mzg6_11projgeom_rs9pg_objectNtB4_7PgPointINtNtCs4TwWhthMkYr_4core7convert4FromAxj3_E4fromB6_
FNDA:0,_RNvXsg_NtCskeUPLh1mzg6_11projgeom_rs9pg_objectNtB5_6PgLineINtNtB7_8pg_plane15ProjectivePlaneNtB5_7PgPointxE11parametrizeB7_
FNDA:0,_RNvXsj_NtCskeUPLh1mzg6_11projgeom_rs9pg_objectNtB5_15HyperbolicPointINtNtCs4TwWhthMkYr_4core7convert4FromAxj3_E4fromB7_
FNDA:0,_RNvXsk_NtCskeUPLh1mzg6_11projgeom_rs9pg_objectNtB5_15HyperbolicPointINtNtCs4TwWhthMkYr_4core7convert4FromTxxxEE4fromB7_
FNDA:0,_RNvXsl_NtCskeUPLh1mzg6_11projgeom_rs9pg_objectNtB5_15HyperbolicPointINtNtCs4TwWhthMkYr_4core7convert4FromRAxj3_E4fromB7_
FNDA:0,_RNvXsm_NtCskeUPLh1mzg6_11projgeom_rs9pg_objectNtB5_15HyperbolicPointNtNtCs4TwWhthMkYr_4core3cmp9PartialEq2eqB7_
FNDA:0,_RNvXsr_NtCskeUPLh1mzg6_11projgeom_rs9pg_objectNtB5_14HyperbolicLineINtNtCs4TwWhthMkYr_4core7convert4FromAxj3_E4fromB7_
FNDA:0,_RNvXss_NtCskeUPLh1mzg6_11projgeom_rs9pg_objectNtB5_14HyperbolicLineINtNtCs4TwWhthMkYr_4core7convert4FromTxxxEE4fromB7_
FNDA:0,_RNvXst_NtCskeUPLh1mzg6_11projgeom_rs9pg_objectNtB5_14HyperbolicLineINtNtCs4TwWhthMkYr_4core7convert4FromRAxj3_E4fromB7_
FNDA:0,_RNvXsu_NtCskeUPLh1mzg6_11projgeom_rs9pg_objectNtB5_14HyperbolicLineNtNtCs4TwWhthMkYr_4core3cmp9PartialEq2eqB7_
FNDA:0,_RNvXsy_NtCskeUPLh1mzg6_11projgeom_rs9pg_objectNtB5_15HyperbolicPointINtNtB7_8pg_plane15ProjectivePlaneNtB5_14HyperbolicLinexE11parametrizeB7_
FNDA:0,_RNvXsy_NtCskeUPLh1mzg6_11projgeom_rs9pg_objectNtB5_15HyperbolicPointINtNtB7_8pg_plane15ProjectivePlaneNtB5_14HyperbolicLinexE3auxB7_
FNDA:0,_RNvXsy_NtCskeUPLh1mzg6_11projgeom_rs9pg_objectNtB5_15HyperbolicPointINtNtB7_8pg_plane15ProjectivePlaneNtB5_14HyperbolicLinexE3dotB7_
FNDA:0,_RNvXsz_NtCskeUPLh1mzg6_11projgeom_rs9pg_objectNtB5_15HyperbolicPointINtNtB7_8pg_plane24ProjectivePlanePrimitiveNtB5_14HyperbolicLineE4meetB7_
FNDA:0,_RNvXsz_NtCskeUPLh1mzg6_11projgeom_rs9pg_objectNtB5_15HyperbolicPointINtNtB7_8pg_plane24ProjectivePlanePrimitiveNtB5_14HyperbolicLineE8incidentB7_
FNDA:2064,_RNvMNtCskeUPLh1mzg6_11projgeom_rs9pg_objectNtB2_7PgPoint3newB4_
FNDA:48,_RNvMs1A_NtCskeUPLh1mzg6_11projgeom_rs9pg_objectNtB6_11EuclidPoint3newB8_
FNDA:58,_RNvMs1I_NtCskeUPLh1mzg6_11projgeom_rs9pg_objectNtB6_10EuclidLine3newB8_
FNDA:34,_RNvMs1g_NtCskeUPLh1mzg6_11projgeom_rs9pg_objectNtB6_10PerspPoint3newB8_
FNDA:14,_RNvMs1o_NtCskeUPLh1mzg6_11projgeom_rs9pg_objectNtB6_9PerspLine3newB8_
FNDA:152,_RNvMs6_NtCskeUPLh1mzg6_11projgeom_rs9pg_objectNtB5_6PgLine3newB7_
FNDA:2,_RNvMsC_NtCskeUPLh1mzg6_11projgeom_rs9pg_objectNtB5_13EllipticPoint3newB7_
FNDA:2,_RNvMsi_NtCskeUPLh1mzg6_11projgeom_rs9pg_objectNtB5_15HyperbolicPoint3newB7_
FNDA:78,_RNvNtCskeUPLh1mzg6_11projgeom_rs9pg_object11dot_productB3_
FNDA:212,_RNvNtCskeUPLh1mzg6_11projgeom_rs9pg_object13cross_productB3_
FNDA:18,_RNvNtCskeUPLh1mzg6_11projgeom_rs9pg_object17plucker_operationB3_
FNDA:12,_RNvNtCskeUPLh1mzg6_11projgeom_rs9pg_object4dot1B3_
FNDA:6,_RNvXs1E_NtCskeUPLh1mzg6_11projgeom_rs9pg_objectNtB6_11EuclidPointNtNtCs4TwWhthMkYr_4core3cmp9PartialEq2eqB8_
FNDA:2,_RNvXs1M_NtCskeUPLh1mzg6_11projgeom_rs9pg_objectNtB6_10EuclidLineNtNtCs4TwWhthMkYr_4core3cmp9PartialEq2eqB8_
FNDA:4,_RNvXs1Q_NtCskeUPLh1mzg6_11projgeom_rs9pg_objectNtB6_11EuclidPointINtNtB8_8pg_plane15ProjectivePlaneNtB6_10EuclidLinexE11parametrizeB8_
FNDA:36,_RNvXs1R_NtCskeUPLh1mzg6_11projgeom_rs9pg_objectNtB6_11EuclidPointINtNtB8_8pg_plane24ProjectivePlanePrimitiveNtB6_10EuclidLineE4meetB8_
FNDA:2,_RNvXs1T_NtCskeUPLh1mzg6_11projgeom_rs9pg_objectNtB6_10EuclidLineINtNtB8_8pg_plane24ProjectivePlanePrimitiveNtB6_11EuclidPointE4meetB8_
FNDA:14,_RNvXs1T_NtCskeUPLh1mzg6_11projgeom_rs9pg_objectNtB6_10EuclidLineINtNtB8_8pg_plane24ProjectivePlanePrimitiveNtB6_11EuclidPointE8incidentB8_
FNDA:2,_RNvXs1k_NtCskeUPLh1mzg6_11projgeom_rs9pg_objectNtB6_10PerspPointNtNtCs4TwWhthMkYr_4core3cmp9PartialEq2eqB8_
FNDA:10,_RNvXs1w_NtCskeUPLh1mzg6_11projgeom_rs9pg_objectNtB6_10PerspPointINtNtB8_8pg_plane15ProjectivePlaneNtB6_9PerspLinexE11parametrizeB8_
FNDA:6,_RNvXs1x_NtCskeUPLh1mzg6_11projgeom_rs9pg_objectNtB6_10PerspPointINtNtB8_8pg_plane24ProjectivePlanePrimitiveNtB6_9PerspLineE4meetB8_
FNDA:6,_RNvXs1x_NtCskeUPLh1mzg6_11projgeom_rs9pg_objectNtB6_10PerspPointINtNtB8_8pg_plane24ProjectivePlanePrimitiveNtB6_9PerspLineE8incidentB8_
FNDA:24,_RNvXs1y_NtCskeUPLh1mzg6_11projgeom_rs9pg_objectNtB6_9PerspLineINtNtB8_8pg_plane15ProjectivePlaneNtB6_10PerspPointxE3dotB8_
FNDA:4,_RNvXs1z_NtCskeUPLh1mzg6_11projgeom_rs9pg_objectNtB6_9PerspLineINtNtB8_8pg_plane24ProjectivePlanePrimitiveNtB6_10PerspPointE4meetB8_
FNDA:44,_RNvXs2_NtCskeUPLh1mzg6_11projgeom_rs9pg_objectNtB5_7PgPointNtNtCs4TwWhthMkYr_4core3cmp9PartialEq2eqB7_
FNDA:16,_RNvXsa_NtCskeUPLh1mzg6_11projgeom_rs9pg_objectNtB5_6PgLineNtNtCs4TwWhthMkYr_4core3cmp9PartialEq2eqB7_
FNDA:4,_RNvXse_NtCskeUPLh1mzg6_11projgeom_rs9pg_objectNtB5_7PgPointINtNtB7_8pg_plane15ProjectivePlaneNtB5_6PgLinexE11parametrizeB7_
FNDA:8,_RNvXse_NtCskeUPLh1mzg6_11projgeom_rs9pg_objectNtB5_7PgPointINtNtB7_8pg_plane15ProjectivePlaneNtB5_6PgLinexE3auxB7_
FNDA:6,_RNvXse_NtCskeUPLh1mzg6_11projgeom_rs9pg_objectNtB5_7PgPointINtNtB7_8pg_plane15ProjectivePlaneNtB5_6PgLinexE3dotB7_
FNDA:74,_RNvXsf_NtCskeUPLh1mzg6_11projgeom_rs9pg_objectNtB5_7PgPointINtNtB7_8pg_plane24ProjectivePlanePrimitiveNtB5_6PgLineE4meetB7_
FNDA:4,_RNvXsf_NtCskeUPLh1mzg6_11projgeom_rs9pg_objectNtB5_7PgPointINtNtB7_8pg_plane24ProjectivePlanePrimitiveNtB5_6PgLineE8incidentB7_
FNDA:4,_RNvXsg_NtCskeUPLh1mzg6_11projgeom_rs9pg_objectNtB5_6PgLineINtNtB7_8pg_plane15ProjectivePlaneNtB5_7PgPointxE3auxB7_
FNDA:8,_RNvXsg_NtCskeUPLh1mzg6_11projgeom_rs9pg_objectNtB5_6PgLineINtNtB7_8pg_plane15ProjectivePlaneNtB5_7PgPointxE3dotB7_
FNDA:20,_RNvXsh_NtCskeUPLh1mzg6_11projgeom_rs9pg_objectNtB5_6PgLineINtNtB7_8pg_plane24ProjectivePlanePrimitiveNtB5_7PgPointE4meetB7_
FNDA:16,_RNvXsh_NtCskeUPLh1mzg6_11projgeom_rs9pg_objectNtB5_6PgLineINtNtB7_8pg_plane24ProjectivePlanePrimitiveNtB5_7PgPointE8incidentB7_
FNF:16
FNH:11
DA:25,9949
DA:27,9949
DA:28,9949
DA:29,9949
DA:30,9949
DA:32,9949
DA:44,12
DA:45,12
DA:46,12
DA:58,0
DA:59,0
DA:60,0
DA:72,18632
DA:73,18632
DA:74,18632
DA:75,18632
DA:76,18632
DA:77,18632
DA:78,18632
DA:79,18632
DA:80,18632
DA:81,18632
DA:82,18632
DA:83,18632
DA:84,18632
DA:96,2886
DA:97,2886
DA:98,2886
DA:99,2886
DA:100,2886
DA:101,2886
DA:102,2886
DA:103,2886
DA:104,2886
DA:105,2886
DA:106,2886
DA:107,2886
DA:108,2886
DA:121,35382
DA:122,35382
DA:123,35382
DA:127,0
DA:128,0
DA:129,0
DA:134,0
DA:135,0
DA:136,0
DA:141,0
DA:142,0
DA:143,0
DA:144,0
DA:145,0
DA:150,0
DA:151,0
DA:152,0
DA:158,3536
DA:159,3536
DA:160,3536
DA:171,1646
DA:172,1646
DA:173,1646
DA:177,1714
DA:178,1714
DA:179,1714
DA:182,2274
DA:183,2274
DA:184,2274
DA:185,2274
DA:186,2274
DA:187,2274
DA:189,2274
DA:194,7225
DA:195,7225
DA:196,7225
DA:199,13884
DA:200,13884
DA:201,13884
BRF:0
BRH:0
LF:77
LH:60
end_of_record
SF:D:\github\rs\projgeom-rs\src\pg_plane.rs
FN:111,_RINvNtCs81zHBbp1AWX_11projgeom_rs8pg_plane10coincidentNtNtB4_9pg_object13EllipticPointNtBS_12EllipticLineECsfZxzWFfcmPC_11integration
FN:111,_RINvNtCs81zHBbp1AWX_11projgeom_rs8pg_plane10coincidentNtNtB4_9pg_object7PgPointNtBS_6PgLineECsfZxzWFfcmPC_11integration
FN:433,_RINvNtCs81zHBbp1AWX_11projgeom_rs8pg_plane10involutionNtNtB4_9pg_object7PgPointNtBS_6PgLinexECsfZxzWFfcmPC_11integration
FN:386,_RINvNtCs81zHBbp1AWX_11projgeom_rs8pg_plane9harm_conjNtNtB4_9pg_object7PgPointNtBQ_6PgLinexECsfZxzWFfcmPC_11integration
FN:111,_RINvNtCs81zHBbp1AWX_11projgeom_rs8pg_plane10coincidentNtNtB4_9pg_object10PerspPointNtBS_9PerspLineECsc7RMaTNwWKe_3lib
FN:111,_RINvNtCs81zHBbp1AWX_11projgeom_rs8pg_plane10coincidentNtNtB4_9pg_object12EllipticLineNtBS_13EllipticPointECsc7RMaTNwWKe_3lib
FN:111,_RINvNtCs81zHBbp1AWX_11projgeom_rs8pg_plane10coincidentNtNtB4_9pg_object13EllipticPointNtBS_12EllipticLineECsc7RMaTNwWKe_3lib
FN:111,_RINvNtCs81zHBbp1AWX_11projgeom_rs8pg_plane10coincidentNtNtB4_9pg_object14HyperbolicLineNtBS_15HyperbolicPointECsc7RMaTNwWKe_3lib
FN:111,_RINvNtCs81zHBbp1AWX_11projgeom_rs8pg_plane10coincidentNtNtB4_9pg_object15HyperbolicPointNtBS_14HyperbolicLineECsc7RMaTNwWKe_3lib
FN:111,_RINvNtCs81zHBbp1AWX_11projgeom_rs8pg_plane10coincidentNtNtB4_9pg_object6PgLineNtBS_7PgPointECsc7RMaTNwWKe_3lib
FN:111,_RINvNtCs81zHBbp1AWX_11projgeom_rs8pg_plane10coincidentNtNtB4_9pg_object7PgPointNtBS_6PgLineECsc7RMaTNwWKe_3lib
FN:111,_RINvNtCs81zHBbp1AWX_11projgeom_rs8pg_plane10coincidentNtNtB4_9pg_object8MyCKLineNtBS_9MyCKPointECsc7RMaTNwWKe_3lib
FN:111,_RINvNtCs81zHBbp1AWX_11projgeom_rs8pg_plane10coincidentNtNtB4_9pg_object9MyCKPointNtBS_8MyCKLineECsc7RMaTNwWKe_3lib
FN:433,_RINvNtCs81zHBbp1AWX_11projgeom_rs8pg_plane10involutionNtNtB4_9pg_object11EuclidPointNtBS_10EuclidLinexECsc7RMaTNwWKe_3lib
FN:433,_RINvNtCs81zHBbp1AWX_11projgeom_rs8pg_plane10involutionNtNtB4_9pg_object7PgPointNtBS_6PgLinexECsc7RMaTNwWKe_3lib
FN:193,_RINvNtCs81zHBbp1AWX_11projgeom_rs8pg_plane8tri_dualNtNtB4_9pg_object10PerspPointNtBP_9PerspLineECsc7RMaTNwWKe_3lib
FN:193,_RINvNtCs81zHBbp1AWX_11projgeom_rs8pg_plane8tri_dualNtNtB4_9pg_object12EllipticLineNtBP_13EllipticPointECsc7RMaTNwWKe_3lib
FN:193,_RINvNtCs81zHBbp1AWX_11projgeom_rs8pg_plane8tri_dualNtNtB4_9pg_object13EllipticPointNtBP_12EllipticLineECsc7RMaTNwWKe_3lib
FN:193,_RINvNtCs81zHBbp1AWX_11projgeom_rs8pg_plane8tri_dualNtNtB4_9pg_object14HyperbolicLineNtBP_15HyperbolicPointECsc7RMaTNwWKe_3lib
FN:193,_RINvNtCs81zHBbp1AWX_11projgeom_rs8pg_plane8tri_dualNtNtB4_9pg_object15HyperbolicPointNtBP_14HyperbolicLineECsc7RMaTNwWKe_3lib
FN:193,_RINvNtCs81zHBbp1AWX_11projgeom_rs8pg_plane8tri_dualNtNtB4_9pg_object8MyCKLineNtBP_9MyCKPointECsc7RMaTNwWKe_3lib
FN:193,_RINvNtCs81zHBbp1AWX_11projgeom_rs8pg_plane8tri_dualNtNtB4_9pg_object9MyCKPointNtBP_8MyCKLineECsc7RMaTNwWKe_3lib
FN:386,_RINvNtCs81zHBbp1AWX_11projgeom_rs8pg_plane9harm_conjNtNtB4_9pg_object11EuclidPointNtBQ_10EuclidLinexECsc7RMaTNwWKe_3lib
FN:386,_RINvNtCs81zHBbp1AWX_11projgeom_rs8pg_plane9harm_conjNtNtB4_9pg_object6PgLineNtBQ_7PgPointxECsc7RMaTNwWKe_3lib
FN:386,_RINvNtCs81zHBbp1AWX_11projgeom_rs8pg_plane9harm_conjNtNtB4_9pg_object7PgPointNtBQ_6PgLinexECsc7RMaTNwWKe_3lib
FN:111,_RINvNtCs81zHBbp1AWX_11projgeom_rs8pg_plane10coincidentNtNtB4_9pg_object11EuclidPointNtBS_10EuclidLineEB4_
FN:193,_RINvNtCs81zHBbp1AWX_11projgeom_rs8pg_plane8tri_dualNtNtB4_9pg_object11EuclidPointNtBP_10EuclidLineEB4_
FN:342,_RINvNtCskeUPLh1mzg6_11projgeom_rs8pg_plane12check_axiom2pppEB4_
FN:491,_RNvXs1_NtNtCskeUPLh1mzg6_11projgeom_rs8pg_plane5testsNtB5_5LArchINtB7_24ProjectivePlanePrimitiveNtB5_5PArchE4meetB9_
FN:111,_RINvNtCskeUPLh1mzg6_11projgeom_rs8pg_plane10coincidentNtNtB2_5tests5PArchNtBS_5LArchEB4_
FN:111,_RINvNtCskeUPLh1mzg6_11projgeom_rs8pg_plane10coincidentNtNtB4_9pg_object11EuclidPointNtBS_10EuclidLineEB4_
FN:111,_RINvNtCskeUPLh1mzg6_11projgeom_rs8pg_plane10coincidentNtNtB4_9pg_object7PgPointNtBS_6PgLineEB4_
FN:433,_RINvNtCskeUPLh1mzg6_11projgeom_rs8pg_plane10involutionNtNtB4_9pg_object7PgPointNtBS_6PgLinexEB4_
FN:60,_RINvNtCskeUPLh1mzg6_11projgeom_rs8pg_plane11check_axiomNtNtB2_5tests5PArchNtBT_5LArchEB4_
FN:153,_RINvNtCskeUPLh1mzg6_11projgeom_rs8pg_plane12check_pappusNtNtB4_9pg_object7PgPointNtBU_6PgLineEB4_
FN:275,_RINvNtCskeUPLh1mzg6_11projgeom_rs8pg_plane14check_desargueNtNtB4_9pg_object7PgPointNtBW_6PgLineEB4_
FN:233,_RINvNtCskeUPLh1mzg6_11projgeom_rs8pg_plane5perspNtNtB4_9pg_object6PgLineNtBM_7PgPointEB4_
FN:233,_RINvNtCskeUPLh1mzg6_11projgeom_rs8pg_plane5perspNtNtB4_9pg_object7PgPointNtBM_6PgLineEB4_
FN:193,_RINvNtCskeUPLh1mzg6_11projgeom_rs8pg_plane8tri_dualNtNtB4_9pg_object11EuclidPointNtBP_10EuclidLineEB4_
FN:193,_RINvNtCskeUPLh1mzg6_11projgeom_rs8pg_plane8tri_dualNtNtB4_9pg_object7PgPointNtBP_6PgLineEB4_
FN:386,_RINvNtCskeUPLh1mzg6_11projgeom_rs8pg_plane9harm_conjNtNtB4_9pg_object7PgPointNtBQ_6PgLinexEB4_
FN:460,_RNvMNtNtCskeUPLh1mzg6_11projgeom_rs8pg_plane5testsNtB2_5PArch3newB6_
FN:467,_RNvMs_NtNtCskeUPLh1mzg6_11projgeom_rs8pg_plane5testsNtB4_5LArch3newB8_
FN:541,_RNvNtNtCskeUPLh1mzg6_11projgeom_rs8pg_plane5testss_10test_persp
FN:527,_RNvNtNtCskeUPLh1mzg6_11projgeom_rs8pg_plane5testss_13test_tri_dual
FN:575,_RNvNtNtCskeUPLh1mzg6_11projgeom_rs8pg_plane5testss_14test_harm_conj
FN:589,_RNvNtNtCskeUPLh1mzg6_11projgeom_rs8pg_plane5testss_15test_involution
FN:509,_RNvNtNtCskeUPLh1mzg6_11projgeom_rs8pg_plane5testss_17test_check_pappus
FN:558,_RNvNtNtCskeUPLh1mzg6_11projgeom_rs8pg_plane5testss_19test_check_desargue
FN:497,_RNvNtNtCskeUPLh1mzg6_11projgeom_rs8pg_plane5testss_8it_works
FN:479,_RNvXs0_NtNtCskeUPLh1mzg6_11projgeom_rs8pg_plane5testsNtB5_5PArchINtB7_24ProjectivePlanePrimitiveNtB5_5LArchE4meetB9_
FN:474,_RNvXs0_NtNtCskeUPLh1mzg6_11projgeom_rs8pg_plane5testsNtB5_5PArchINtB7_24ProjectivePlanePrimitiveNtB5_5LArchE8incidentB9_
FN:486,_RNvXs1_NtNtCskeUPLh1mzg6_11projgeom_rs8pg_plane5testsNtB5_5LArchINtB7_24ProjectivePlanePrimitiveNtB5_5PArchE8incidentB9_
FNDA:2,_RINvNtCs81zHBbp1AWX_11projgeom_rs8pg_plane10coincidentNtNtB4_9pg_object13EllipticPointNtBS_12EllipticLineECsfZxzWFfcmPC_11integration
FNDA:28,_RINvNtCs81zHBbp1AWX_11projgeom_rs8pg_plane10coincidentNtNtB4_9pg_object7PgPointNtBS_6PgLineECsfZxzWFfcmPC_11integration
FNDA:8,_RINvNtCs81zHBbp1AWX_11projgeom_rs8pg_plane10involutionNtNtB4_9pg_object7PgPointNtBS_6PgLinexECsfZxzWFfcmPC_11integration
FNDA:18,_RINvNtCs81zHBbp1AWX_11projgeom_rs8pg_plane9harm_conjNtNtB4_9pg_object7PgPointNtBQ_6PgLinexECsfZxzWFfcmPC_11integration
FNDA:208,_RINvNtCs81zHBbp1AWX_11projgeom_rs8pg_plane10coincidentNtNtB4_9pg_object10PerspPointNtBS_9PerspLineECsc7RMaTNwWKe_3lib
FNDA:8,_RINvNtCs81zHBbp1AWX_11projgeom_rs8pg_plane10coincidentNtNtB4_9pg_object12EllipticLineNtBS_13EllipticPointECsc7RMaTNwWKe_3lib
FNDA:808,_RINvNtCs81zHBbp1AWX_11projgeom_rs8pg_plane10coincidentNtNtB4_9pg_object13EllipticPointNtBS_12EllipticLineECsc7RMaTNwWKe_3lib
FNDA:8,_RINvNtCs81zHBbp1AWX_11projgeom_rs8pg_plane10coincidentNtNtB4_9pg_object14HyperbolicLineNtBS_15HyperbolicPointECsc7RMaTNwWKe_3lib
FNDA:8,_RINvNtCs81zHBbp1AWX_11projgeom_rs8pg_plane10coincidentNtNtB4_9pg_object15HyperbolicPointNtBS_14HyperbolicLineECsc7RMaTNwWKe_3lib
FNDA:6,_RINvNtCs81zHBbp1AWX_11projgeom_rs8pg_plane10coincidentNtNtB4_9pg_object6PgLineNtBS_7PgPointECsc7RMaTNwWKe_3lib
FNDA:806,_RINvNtCs81zHBbp1AWX_11projgeom_rs8pg_plane10coincidentNtNtB4_9pg_object7PgPointNtBS_6PgLineECsc7RMaTNwWKe_3lib
FNDA:8,_RINvNtCs81zHBbp1AWX_11projgeom_rs8pg_plane10coincidentNtNtB4_9pg_object8MyCKLineNtBS_9MyCKPointECsc7RMaTNwWKe_3lib
FNDA:8,_RINvNtCs81zHBbp1AWX_11projgeom_rs8pg_plane10coincidentNtNtB4_9pg_object9MyCKPointNtBS_8MyCKLineECsc7RMaTNwWKe_3lib
FNDA:400,_RINvNtCs81zHBbp1AWX_11projgeom_rs8pg_plane10involutionNtNtB4_9pg_object11EuclidPointNtBS_10EuclidLinexECsc7RMaTNwWKe_3lib
FNDA:400,_RINvNtCs81zHBbp1AWX_11projgeom_rs8pg_plane10involutionNtNtB4_9pg_object7PgPointNtBS_6PgLinexECsc7RMaTNwWKe_3lib
FNDA:4,_RINvNtCs81zHBbp1AWX_11projgeom_rs8pg_plane8tri_dualNtNtB4_9pg_object10PerspPointNtBP_9PerspLineECsc7RMaTNwWKe_3lib
FNDA:4,_RINvNtCs81zHBbp1AWX_11projgeom_rs8pg_plane8tri_dualNtNtB4_9pg_object12EllipticLineNtBP_13EllipticPointECsc7RMaTNwWKe_3lib
FNDA:204,_RINvNtCs81zHBbp1AWX_11projgeom_rs8pg_plane8tri_dualNtNtB4_9pg_object13EllipticPointNtBP_12EllipticLineECsc7RMaTNwWKe_3lib
FNDA:4,_RINvNtCs81zHBbp1AWX_11projgeom_rs8pg_plane8tri_dualNtNtB4_9pg_object14HyperbolicLineNtBP_15HyperbolicPointECsc7RMaTNwWKe_3lib
FNDA:4,_RINvNtCs81zHBbp1AWX_11projgeom_rs8pg_plane8tri_dualNtNtB4_9pg_object15HyperbolicPointNtBP_14HyperbolicLineECsc7RMaTNwWKe_3lib
FNDA:4,_RINvNtCs81zHBbp1AWX_11projgeom_rs8pg_plane8tri_dualNtNtB4_9pg_object8MyCKLineNtBP_9MyCKPointECsc7RMaTNwWKe_3lib
FNDA:4,_RINvNtCs81zHBbp1AWX_11projgeom_rs8pg_plane8tri_dualNtNtB4_9pg_object9MyCKPointNtBP_8MyCKLineECsc7RMaTNwWKe_3lib
FNDA:400,_RINvNtCs81zHBbp1AWX_11projgeom_rs8pg_plane9harm_conjNtNtB4_9pg_object11EuclidPointNtBQ_10EuclidLinexECsc7RMaTNwWKe_3lib
FNDA:4,_RINvNtCs81zHBbp1AWX_11projgeom_rs8pg_plane9harm_conjNtNtB4_9pg_object6PgLineNtBQ_7PgPointxECsc7RMaTNwWKe_3lib
FNDA:404,_RINvNtCs81zHBbp1AWX_11projgeom_rs8pg_plane9harm_conjNtNtB4_9pg_object7PgPointNtBQ_6PgLinexECsc7RMaTNwWKe_3lib
FNDA:1208,_RINvNtCs81zHBbp1AWX_11projgeom_rs8pg_plane10coincidentNtNtB4_9pg_object11EuclidPointNtBS_10EuclidLineEB4_
FNDA:404,_RINvNtCs81zHBbp1AWX_11projgeom_rs8pg_plane8tri_dualNtNtB4_9pg_object11EuclidPointNtBP_10EuclidLineEB4_
FNDA:0,_RINvNtCskeUPLh1mzg6_11projgeom_rs8pg_plane12check_axiom2pppEB4_
FNDA:0,_RNvXs1_NtNtCskeUPLh1mzg6_11projgeom_rs8pg_plane5testsNtB5_5LArchINtB7_24ProjectivePlanePrimitiveNtB5_5PArchE4meetB9_
FNDA:2,_RINvNtCskeUPLh1mzg6_11projgeom_rs8pg_plane10coincidentNtNtB2_5tests5PArchNtBS_5LArchEB4_
FNDA:8,_RINvNtCskeUPLh1mzg6_11projgeom_rs8pg_plane10coincidentNtNtB4_9pg_object11EuclidPointNtBS_10EuclidLineEB4_
FNDA:12,_RINvNtCskeUPLh1mzg6_11projgeom_rs8pg_plane10coincidentNtNtB4_9pg_object7PgPointNtBS_6PgLineEB4_
FNDA:2,_RINvNtCskeUPLh1mzg6_11projgeom_rs8pg_plane10involutionNtNtB4_9pg_object7PgPointNtBS_6PgLinexEB4_
FNDA:2,_RINvNtCskeUPLh1mzg6_11projgeom_rs8pg_plane11check_axiomNtNtB2_5tests5PArchNtBT_5LArchEB4_
FNDA:2,_RINvNtCskeUPLh1mzg6_11projgeom_rs8pg_plane12check_pappusNtNtB4_9pg_object7PgPointNtBU_6PgLineEB4_
FNDA:2,_RINvNtCskeUPLh1mzg6_11projgeom_rs8pg_plane14check_desargueNtNtB4_9pg_object7PgPointNtBW_6PgLineEB4_
FNDA:2,_RINvNtCskeUPLh1mzg6_11projgeom_rs8pg_plane5perspNtNtB4_9pg_object6PgLineNtBM_7PgPointEB4_
FNDA:4,_RINvNtCskeUPLh1mzg6_11projgeom_rs8pg_plane5perspNtNtB4_9pg_object7PgPointNtBM_6PgLineEB4_
FNDA:4,_RINvNtCskeUPLh1mzg6_11projgeom_rs8pg_plane8tri_dualNtNtB4_9pg_object11EuclidPointNtBP_10EuclidLineEB4_
FNDA:6,_RINvNtCskeUPLh1mzg6_11projgeom_rs8pg_plane8tri_dualNtNtB4_9pg_object7PgPointNtBP_6PgLineEB4_
FNDA:4,_RINvNtCskeUPLh1mzg6_11projgeom_rs8pg_plane9harm_conjNtNtB4_9pg_object7PgPointNtBQ_6PgLinexEB4_
FNDA:6,_RNvMNtNtCskeUPLh1mzg6_11projgeom_rs8pg_plane5testsNtB2_5PArch3newB6_
FNDA:10,_RNvMs_NtNtCskeUPLh1mzg6_11projgeom_rs8pg_plane5testsNtB4_5LArch3newB8_
FNDA:2,_RNvNtNtCskeUPLh1mzg6_11projgeom_rs8pg_plane5testss_10test_persp
FNDA:2,_RNvNtNtCskeUPLh1mzg6_11projgeom_rs8pg_plane5testss_13test_tri_dual
FNDA:2,_RNvNtNtCskeUPLh1mzg6_11projgeom_rs8pg_plane5testss_14test_harm_conj
FNDA:2,_RNvNtNtCskeUPLh1mzg6_11projgeom_rs8pg_plane5testss_15test_involution
FNDA:2,_RNvNtNtCskeUPLh1mzg6_11projgeom_rs8pg_plane5testss_17test_check_pappus
FNDA:2,_RNvNtNtCskeUPLh1mzg6_11projgeom_rs8pg_plane5testss_19test_check_desargue
FNDA:2,_RNvNtNtCskeUPLh1mzg6_11projgeom_rs8pg_plane5testss_8it_works
FNDA:8,_RNvXs0_NtNtCskeUPLh1mzg6_11projgeom_rs8pg_plane5testsNtB5_5PArchINtB7_24ProjectivePlanePrimitiveNtB5_5LArchE4meetB9_
FNDA:4,_RNvXs0_NtNtCskeUPLh1mzg6_11projgeom_rs8pg_plane5testsNtB5_5PArchINtB7_24ProjectivePlanePrimitiveNtB5_5LArchE8incidentB9_
FNDA:8,_RNvXs1_NtNtCskeUPLh1mzg6_11projgeom_rs8pg_plane5testsNtB5_5LArchINtB7_24ProjectivePlanePrimitiveNtB5_5PArchE8incidentB9_
FNF:22
FNH:20
DA:60,2
DA:61,2
DA:62,2
DA:63,2
DA:67,2
DA:68,2
DA:69,2
DA:70,2
DA:71,2
DA:111,3128
DA:112,3128
DA:113,3128
DA:114,3128
DA:116,3128
DA:117,3128
DA:153,2
DA:154,2
DA:155,2
DA:156,2
DA:158,2
DA:159,2
DA:160,2
DA:161,2
DA:162,2
DA:163,2
DA:164,2
DA:193,642
DA:194,642
DA:195,642
DA:196,642
DA:198,642
DA:199,642
DA:200,642
DA:201,642
DA:233,6
DA:234,6
DA:235,6
DA:236,6
DA:238,6
DA:239,6
DA:240,6
DA:241,6
DA:242,6
DA:275,2
DA:276,2
DA:277,2
DA:278,2
DA:280,2
DA:281,2
DA:282,2
DA:283,2
DA:284,2
DA:285,2
DA:342,0
DA:343,0
DA:344,0
DA:345,0
DA:346,0
DA:347,0
DA:348,0
DA:349,0
DA:350,0
DA:351,0
DA:353,0
DA:354,0
DA:355,0
DA:356,0
DA:357,0
DA:386,830
DA:387,830
DA:388,830
DA:389,830
DA:390,830
DA:392,830
DA:393,830
DA:394,830
DA:395,830
DA:396,830
DA:433,810
DA:434,810
DA:435,810
DA:436,810
DA:437,810
DA:439,810
DA:440,810
DA:441,810
DA:442,810
DA:460,6
DA:461,6
DA:462,6
DA:467,10
DA:468,10
DA:469,10
DA:474,4
DA:475,4
DA:476,4
DA:479,8
DA:480,8
DA:481,8
DA:486,8
DA:487,8
DA:488,8
DA:491,0
DA:492,0
DA:493,0
DA:497,2
DA:498,2
DA:499,2
DA:500,2
DA:501,2
DA:502,2
DA:503,2
DA:504,2
DA:505,2
DA:506,2
DA:509,2
DA:511,2
DA:512,2
DA:513,2
DA:515,2
DA:516,2
DA:517,2
DA:519,2
DA:520,2
DA:523,2
DA:524,2
DA:527,2
DA:529,2
DA:530,2
DA:531,2
DA:533,2
DA:534,2
DA:537,2
DA:538,2
DA:541,2
DA:543,2
DA:544,2
DA:545,2
DA:546,2
DA:548,2
DA:549,2
DA:550,2
DA:551,2
DA:554,2
DA:555,2
DA:558,2
DA:560,2
DA:561,2
DA:562,2
DA:563,2
DA:565,2
DA:566,2
DA:567,2
DA:568,2
DA:571,2
DA:572,2
DA:575,2
DA:577,2
DA:578,2
DA:579,2
DA:582,2
DA:585,2
DA:586,2
DA:589,2
DA:591,2
DA:592,2
DA:593,2
DA:596,2
DA:599,2
DA:600,2
BRF:0
BRH:0
LF:170
LH:152
end_of_record
SF:D:\github\rs\projgeom-rs\src\predicates.rs
FN:95,_RNvNtCskeUPLh1mzg6_11projgeom_rs10predicates11orientation
FN:192,_RNvNtCskeUPLh1mzg6_11projgeom_rs10predicates12angle_cosine
FN:122,_RNvNtCskeUPLh1mzg6_11projgeom_rs10predicates13line_position
FN:224,_RNvNtCskeUPLh1mzg6_11projgeom_rs10predicates13triangle_area
FN:299,_RNvNtCskeUPLh1mzg6_11projgeom_rs10predicates14is_at_infinity
FN:155,_RNvNtCskeUPLh1mzg6_11projgeom_rs10predicates16squared_distance
FN:251,_RNvNtCskeUPLh1mzg6_11projgeom_rs10predicates17point_in_triangle
FN:312,_RNvNtCskeUPLh1mzg6_11projgeom_rs10predicates19is_line_at_infinity
FN:50,_RNvNtCskeUPLh1mzg6_11projgeom_rs10predicates21normalize_homogeneous
FN:175,_RNvNtCskeUPLh1mzg6_11projgeom_rs10predicates8distance
FN:280,_RNvNtCskeUPLh1mzg6_11projgeom_rs10predicates9to_affine
FN:448,_RNvNtNtCskeUPLh1mzg6_11projgeom_rs10predicates5testss_13test_distance
FN:336,_RNvNtNtCskeUPLh1mzg6_11projgeom_rs10predicates5testss_16test_orientation
FN:359,_RNvNtNtCskeUPLh1mzg6_11projgeom_rs10predicates5testss_18test_triangle_area
FN:382,_RNvNtNtCskeUPLh1mzg6_11projgeom_rs10predicates5testss_19test_is_at_infinity
FN:351,_RNvNtNtCskeUPLh1mzg6_11projgeom_rs10predicates5testss_21test_squared_distance
FN:368,_RNvNtNtCskeUPLh1mzg6_11projgeom_rs10predicates5testss_22test_point_in_triangle
FN:398,_RNvNtNtCskeUPLh1mzg6_11projgeom_rs10predicates5testss_23test_line_position_left
FN:437,_RNvNtNtCskeUPLh1mzg6_11projgeom_rs10predicates5testss_24test_angle_cosine_obtuse
FN:525,_RNvNtNtCskeUPLh1mzg6_11projgeom_rs10predicates5testss_24test_is_line_at_infinity
FN:406,_RNvNtNtCskeUPLh1mzg6_11projgeom_rs10predicates5testss_24test_line_position_right
FN:391,_RNvNtNtCskeUPLh1mzg6_11projgeom_rs10predicates5testss_26test_line_position_on_line
FN:321,_RNvNtNtCskeUPLh1mzg6_11projgeom_rs10predicates5testss_26test_normalize_homogeneous
FN:457,_RNvNtNtCskeUPLh1mzg6_11projgeom_rs10predicates5testss_26test_squared_distance_zero
FN:495,_RNvNtNtCskeUPLh1mzg6_11projgeom_rs10predicates5testss_27test_triangle_area_negative
FN:426,_RNvNtNtCskeUPLh1mzg6_11projgeom_rs10predicates5testss_28test_angle_cosine_zero_angle
FN:414,_RNvNtNtCskeUPLh1mzg6_11projgeom_rs10predicates5testss_29test_angle_cosine_right_angle
FN:505,_RNvNtNtCskeUPLh1mzg6_11projgeom_rs10predicates5testss_29test_point_in_triangle_inside
FN:515,_RNvNtNtCskeUPLh1mzg6_11projgeom_rs10predicates5testss_29test_point_in_triangle_vertex
FN:534,_RNvNtNtCskeUPLh1mzg6_11projgeom_rs10predicates5testss_30test_is_line_at_infinity_false
FN:481,_RNvNtNtCskeUPLh1mzg6_11projgeom_rs10predicates5testss_33test_normalize_homogeneous_no_gcd
FN:488,_RNvNtNtCskeUPLh1mzg6_11projgeom_rs10predicates5testss_36test_normalize_homogeneous_zero_last
FN:473,_RNvNtNtCskeUPLh1mzg6_11projgeom_rs10predicates5testss_39test_normalize_homogeneous_negative_gcd
FN:465,_RNvNtNtCskeUPLh1mzg6_11projgeom_rs10predicates5testss_42test_squared_distance_negative_coordinates
FNDA:30,_RNvNtCskeUPLh1mzg6_11projgeom_rs10predicates11orientation
FNDA:6,_RNvNtCskeUPLh1mzg6_11projgeom_rs10predicates12angle_cosine
FNDA:6,_RNvNtCskeUPLh1mzg6_11projgeom_rs10predicates13line_position
FNDA:4,_RNvNtCskeUPLh1mzg6_11projgeom_rs10predicates13triangle_area
FNDA:4,_RNvNtCskeUPLh1mzg6_11projgeom_rs10predicates14is_at_infinity
FNDA:8,_RNvNtCskeUPLh1mzg6_11projgeom_rs10predicates16squared_distance
FNDA:8,_RNvNtCskeUPLh1mzg6_11projgeom_rs10predicates17point_in_triangle
FNDA:6,_RNvNtCskeUPLh1mzg6_11projgeom_rs10predicates19is_line_at_infinity
FNDA:12,_RNvNtCskeUPLh1mzg6_11projgeom_rs10predicates21normalize_homogeneous
FNDA:2,_RNvNtCskeUPLh1mzg6_11projgeom_rs10predicates8distance
FNDA:136,_RNvNtCskeUPLh1mzg6_11projgeom_rs10predicates9to_affine
FNDA:2,_RNvNtNtCskeUPLh1mzg6_11projgeom_rs10predicates5testss_13test_distance
FNDA:2,_RNvNtNtCskeUPLh1mzg6_11projgeom_rs10predicates5testss_16test_orientation
FNDA:2,_RNvNtNtCskeUPLh1mzg6_11projgeom_rs10predicates5testss_18test_triangle_area
FNDA:2,_RNvNtNtCskeUPLh1mzg6_11projgeom_rs10predicates5testss_19test_is_at_infinity
FNDA:2,_RNvNtNtCskeUPLh1mzg6_11projgeom_rs10predicates5testss_21test_squared_distance
FNDA:2,_RNvNtNtCskeUPLh1mzg6_11projgeom_rs10predicates5testss_22test_point_in_triangle
FNDA:2,_RNvNtNtCskeUPLh1mzg6_11projgeom_rs10predicates5testss_23test_line_position_left
FNDA:2,_RNvNtNtCskeUPLh1mzg6_11projgeom_rs10predicates5testss_24test_angle_cosine_obtuse
FNDA:2,_RNvNtNtCskeUPLh1mzg6_11projgeom_rs10predicates5testss_24test_is_line_at_infinity
FNDA:2,_RNvNtNtCskeUPLh1mzg6_11projgeom_rs10predicates5testss_24test_line_position_right
FNDA:2,_RNvNtNtCskeUPLh1mzg6_11projgeom_rs10predicates5testss_26test_line_position_on_line
FNDA:2,_RNvNtNtCskeUPLh1mzg6_11projgeom_rs10predicates5testss_26test_normalize_homogeneous
FNDA:2,_RNvNtNtCskeUPLh1mzg6_11projgeom_rs10predicates5testss_26test_squared_distance_zero
FNDA:2,_RNvNtNtCskeUPLh1mzg6_11projgeom_rs10predicates5testss_27test_triangle_area_negative
FNDA:2,_RNvNtNtCskeUPLh1mzg6_11projgeom_rs10predicates5testss_28test_angle_cosine_zero_angle
FNDA:2,_RNvNtNtCskeUPLh1mzg6_11projgeom_rs10predicates5testss_29test_angle_cosine_right_angle
FNDA:2,_RNvNtNtCskeUPLh1mzg6_11projgeom_rs10predicates5testss_29test_point_in_triangle_inside
FNDA:2,_RNvNtNtCskeUPLh1mzg6_11projgeom_rs10predicates5testss_29test_point_in_triangle_vertex
FNDA:2,_RNvNtNtCskeUPLh1mzg6_11projgeom_rs10predicates5testss_30test_is_line_at_infinity_false
FNDA:2,_RNvNtNtCskeUPLh1mzg6_11projgeom_rs10predicates5testss_33test_normalize_homogeneous_no_gcd
FNDA:2,_RNvNtNtCskeUPLh1mzg6_11projgeom_rs10predicates5testss_36test_normalize_homogeneous_zero_last
FNDA:2,_RNvNtNtCskeUPLh1mzg6_11projgeom_rs10predicates5testss_39test_normalize_homogeneous_negative_gcd
FNDA:2,_RNvNtNtCskeUPLh1mzg6_11projgeom_rs10predicates5testss_42test_squared_distance_negative_coordinates
FNF:34
FNH:34
DA:50,12
DA:51,12
DA:52,12
DA:53,8
DA:54,8
DA:55,8
DA:56,8
DA:59,12
DA:60,2
DA:61,2
DA:62,2
DA:63,10
DA:64,0
DA:65,0
DA:66,10
DA:67,0
DA:68,10
DA:69,12
DA:95,30
DA:97,30
DA:98,30
DA:99,30
DA:101,30
DA:103,30
DA:104,14
DA:105,16
DA:106,4
DA:108,12
DA:110,30
DA:122,6
DA:123,6
DA:124,6
DA:125,2
DA:126,4
DA:127,2
DA:129,2
DA:131,6
DA:155,8
DA:156,8
DA:157,8
DA:159,8
DA:160,8
DA:162,8
DA:163,8
DA:175,2
DA:176,2
DA:177,2
DA:192,6
DA:193,6
DA:194,6
DA:195,6
DA:197,6
DA:198,6
DA:199,6
DA:200,6
DA:202,6
DA:203,6
DA:204,6
DA:206,6
DA:207,0
DA:208,6
DA:210,6
DA:211,6
DA:224,4
DA:225,4
DA:226,4
DA:227,4
DA:229,4
DA:230,4
DA:231,4
DA:232,4
DA:233,4
DA:234,4
DA:236,4
DA:237,4
DA:251,8
DA:252,8
DA:253,8
DA:254,8
DA:259,8
DA:260,8
DA:261,2
DA:262,2
DA:264,8
DA:265,8
DA:280,136
DA:281,136
DA:282,0
DA:283,136
DA:284,136
DA:285,136
DA:286,136
DA:287,136
DA:288,136
DA:299,4
DA:300,4
DA:301,4
DA:312,6
DA:313,6
DA:314,6
DA:321,2
DA:322,2
DA:323,2
DA:324,2
DA:326,2
DA:327,2
DA:328,2
DA:330,2
DA:331,2
DA:332,2
DA:333,2
DA:336,2
DA:337,2
DA:338,2
DA:339,2
DA:341,2
DA:343,2
DA:344,2
DA:346,2
DA:347,2
DA:348,2
DA:351,2
DA:352,2
DA:353,2
DA:354,2
DA:355,2
DA:356,2
DA:359,2
DA:360,2
DA:361,2
DA:362,2
DA:363,2
DA:364,2
DA:365,2
DA:368,2
DA:369,2
DA:370,2
DA:371,2
DA:374,2
DA:375,2
DA:377,2
DA:378,2
DA:379,2
DA:382,2
DA:383,2
DA:384,2
DA:386,2
DA:387,2
DA:388,2
DA:391,2
DA:392,2
DA:393,2
DA:394,2
DA:395,2
DA:398,2
DA:399,2
DA:400,2
DA:402,2
DA:403,2
DA:406,2
DA:407,2
DA:408,2
DA:410,2
DA:411,2
DA:414,2
DA:415,2
DA:416,2
DA:417,2
DA:421,2
DA:422,2
DA:423,2
DA:426,2
DA:427,2
DA:428,2
DA:429,2
DA:432,2
DA:433,2
DA:434,2
DA:437,2
DA:438,2
DA:439,2
DA:440,2
DA:443,2
DA:444,2
DA:445,2
DA:448,2
DA:449,2
DA:450,2
DA:451,2
DA:453,2
DA:454,2
DA:457,2
DA:458,2
DA:459,2
DA:460,2
DA:461,2
DA:462,2
DA:465,2
DA:466,2
DA:467,2
DA:468,2
DA:469,2
DA:470,2
DA:473,2
DA:474,2
DA:475,2
DA:477,2
DA:478,2
DA:481,2
DA:482,2
DA:483,2
DA:484,2
DA:485,2
DA:488,2
DA:489,2
DA:490,2
DA:491,2
DA:492,2
DA:495,2
DA:496,2
DA:497,2
DA:498,2
DA:499,2
DA:501,2
DA:502,2
DA:505,2
DA:506,2
DA:507,2
DA:508,2
DA:510,2
DA:511,2
DA:512,2
DA:515,2
DA:516,2
DA:517,2
DA:518,2
DA:521,2
DA:522,2
DA:525,2
DA:526,2
DA:527,2
DA:529,2
DA:530,2
DA:531,2
DA:534,2
DA:535,2
DA:536,2
DA:537,2
BRF:0
BRH:0
LF:248
LH:243
end_of_record
SF:D:\github\rs\projgeom-rs\src\transform.rs
FN:164,_RNvMNtCs81zHBbp1AWX_11projgeom_rs9transformNtB2_9Transform10apply_line
FN:146,_RNvMNtCs81zHBbp1AWX_11projgeom_rs9transformNtB2_9Transform11apply_point
FN:46,_RNvMNtCs81zHBbp1AWX_11projgeom_rs9transformNtB2_9Transform11translation
FN:114,_RNvMNtCs81zHBbp1AWX_11projgeom_rs9transformNtB2_9Transform5shear
FN:129,_RNvMNtCs81zHBbp1AWX_11projgeom_rs9transformNtB2_9Transform7compose
FN:183,_RNvMNtCs81zHBbp1AWX_11projgeom_rs9transformNtB2_9Transform7inverse
FN:94,_RNvMNtCs81zHBbp1AWX_11projgeom_rs9transformNtB2_9Transform7scaling
FN:18,_RNvMNtCs81zHBbp1AWX_11projgeom_rs9transformNtB2_9Transform8identity
FN:74,_RNvMNtCs81zHBbp1AWX_11projgeom_rs9transformNtB2_9Transform8rotation
FN:268,_RNvNtCs81zHBbp1AWX_11projgeom_rs9transform11scale_point
FN:240,_RNvNtCs81zHBbp1AWX_11projgeom_rs9transform12rotate_point
FN:256,_RNvNtCs81zHBbp1AWX_11projgeom_rs9transform15translate_point
FN:286,_RNvNtCs81zHBbp1AWX_11projgeom_rs9transform20projective_transform
FN:228,_RNvXs_NtCs81zHBbp1AWX_11projgeom_rs9transformNtB4_9TransformNtNtCs4TwWhthMkYr_4core7default7Default7default
FN:164,_RNvMNtCskeUPLh1mzg6_11projgeom_rs9transformNtB2_9Transform10apply_line
FN:146,_RNvMNtCskeUPLh1mzg6_11projgeom_rs9transformNtB2_9Transform11apply_point
FN:46,_RNvMNtCskeUPLh1mzg6_11projgeom_rs9transformNtB2_9Transform11translation
FN:114,_RNvMNtCskeUPLh1mzg6_11projgeom_rs9transformNtB2_9Transform5shear
FN:129,_RNvMNtCskeUPLh1mzg6_11projgeom_rs9transformNtB2_9Transform7compose
FN:183,_RNvMNtCskeUPLh1mzg6_11projgeom_rs9transformNtB2_9Transform7inverse
FN:94,_RNvMNtCskeUPLh1mzg6_11projgeom_rs9transformNtB2_9Transform7scaling
FN:18,_RNvMNtCskeUPLh1mzg6_11projgeom_rs9transformNtB2_9Transform8identity
FN:74,_RNvMNtCskeUPLh1mzg6_11projgeom_rs9transformNtB2_9Transform8rotation
FN:268,_RNvNtCskeUPLh1mzg6_11projgeom_rs9transform11scale_point
FN:240,_RNvNtCskeUPLh1mzg6_11projgeom_rs9transform12rotate_point
FN:256,_RNvNtCskeUPLh1mzg6_11projgeom_rs9transform15translate_point
FN:286,_RNvNtCskeUPLh1mzg6_11projgeom_rs9transform20projective_transform
FN:228,_RNvXs_NtCskeUPLh1mzg6_11projgeom_rs9transformNtB4_9TransformNtNtCs4TwWhthMkYr_4core7default7Default7default
FN:358,_RNvNtNtCskeUPLh1mzg6_11projgeom_rs9transform5testss_10test_shear
FN:333,_RNvNtNtCskeUPLh1mzg6_11projgeom_rs9transform5testss_12test_compose
FN:485,_RNvNtNtCskeUPLh1mzg6_11projgeom_rs9transform5testss_12test_default
FN:346,_RNvNtNtCskeUPLh1mzg6_11projgeom_rs9transform5testss_12test_inverse
FN:325,_RNvNtNtCskeUPLh1mzg6_11projgeom_rs9transform5testss_12test_scaling
FN:300,_RNvNtNtCskeUPLh1mzg6_11projgeom_rs9transform5testss_13test_identity
FN:374,_RNvNtNtCskeUPLh1mzg6_11projgeom_rs9transform5testss_15test_apply_line
FN:456,_RNvNtNtCskeUPLh1mzg6_11projgeom_rs9transform5testss_16test_scale_point
FN:308,_RNvNtNtCskeUPLh1mzg6_11projgeom_rs9transform5testss_16test_translation
FN:442,_RNvNtNtCskeUPLh1mzg6_11projgeom_rs9transform5testss_17test_rotate_point
FN:406,_RNvNtNtCskeUPLh1mzg6_11projgeom_rs9transform5testss_20test_inverse_scaling
FN:449,_RNvNtNtCskeUPLh1mzg6_11projgeom_rs9transform5testss_20test_translate_point
FN:418,_RNvNtNtCskeUPLh1mzg6_11projgeom_rs9transform5testss_21test_compose_identity
FN:427,_RNvNtNtCskeUPLh1mzg6_11projgeom_rs9transform5testss_21test_compose_multiple
FN:394,_RNvNtNtCskeUPLh1mzg6_11projgeom_rs9transform5testss_21test_inverse_rotation
FN:499,_RNvNtNtCskeUPLh1mzg6_11projgeom_rs9transform5testss_23test_scaling_fractional
FN:384,_RNvNtNtCskeUPLh1mzg6_11projgeom_rs9transform5testss_24test_apply_line_rotation
FN:316,_RNvNtNtCskeUPLh1mzg6_11projgeom_rs9transform5testss_24test_rotation_90_degrees
FN:463,_RNvNtNtCskeUPLh1mzg6_11projgeom_rs9transform5testss_25test_projective_transform
FN:491,_RNvNtNtCskeUPLh1mzg6_11projgeom_rs9transform5testss_25test_translation_negative
FN:366,_RNvNtNtCskeUPLh1mzg6_11projgeom_rs9transform5testss_26test_shear_both_directions
FNDA:0,_RNvMNtCs81zHBbp1AWX_11projgeom_rs9transformNtB2_9Transform10apply_line
FNDA:4,_RNvMNtCs81zHBbp1AWX_11projgeom_rs9transformNtB2_9Transform11apply_point
FNDA:2,_RNvMNtCs81zHBbp1AWX_11projgeom_rs9transformNtB2_9Transform11translation
FNDA:0,_RNvMNtCs81zHBbp1AWX_11projgeom_rs9transformNtB2_9Transform5shear
FNDA:0,_RNvMNtCs81zHBbp1AWX_11projgeom_rs9transformNtB2_9Transform7compose
FNDA:0,_RNvMNtCs81zHBbp1AWX_11projgeom_rs9transformNtB2_9Transform7inverse
FNDA:0,_RNvMNtCs81zHBbp1AWX_11projgeom_rs9transformNtB2_9Transform7scaling
FNDA:2,_RNvMNtCs81zHBbp1AWX_11projgeom_rs9transformNtB2_9Transform8identity
FNDA:0,_RNvMNtCs81zHBbp1AWX_11projgeom_rs9transformNtB2_9Transform8rotation
FNDA:0,_RNvNtCs81zHBbp1AWX_11projgeom_rs9transform11scale_point
FNDA:0,_RNvNtCs81zHBbp1AWX_11projgeom_rs9transform12rotate_point
FNDA:0,_RNvNtCs81zHBbp1AWX_11projgeom_rs9transform15translate_point
FNDA:0,_RNvNtCs81zHBbp1AWX_11projgeom_rs9transform20projective_transform
FNDA:0,_RNvXs_NtCs81zHBbp1AWX_11projgeom_rs9transformNtB4_9TransformNtNtCs4TwWhthMkYr_4core7default7Default7default
FNDA:4,_RNvMNtCskeUPLh1mzg6_11projgeom_rs9transformNtB2_9Transform10apply_line
FNDA:38,_RNvMNtCskeUPLh1mzg6_11projgeom_rs9transformNtB2_9Transform11apply_point
FNDA:18,_RNvMNtCskeUPLh1mzg6_11projgeom_rs9transformNtB2_9Transform11translation
FNDA:4,_RNvMNtCskeUPLh1mzg6_11projgeom_rs9transformNtB2_9Transform5shear
FNDA:8,_RNvMNtCskeUPLh1mzg6_11projgeom_rs9transformNtB2_9Transform7compose
FNDA:10,_RNvMNtCskeUPLh1mzg6_11projgeom_rs9transformNtB2_9Transform7inverse
FNDA:12,_RNvMNtCskeUPLh1mzg6_11projgeom_rs9transformNtB2_9Transform7scaling
FNDA:20,_RNvMNtCskeUPLh1mzg6_11projgeom_rs9transformNtB2_9Transform8identity
FNDA:8,_RNvMNtCskeUPLh1mzg6_11projgeom_rs9transformNtB2_9Transform8rotation
FNDA:2,_RNvNtCskeUPLh1mzg6_11projgeom_rs9transform11scale_point
FNDA:2,_RNvNtCskeUPLh1mzg6_11projgeom_rs9transform12rotate_point
FNDA:2,_RNvNtCskeUPLh1mzg6_11projgeom_rs9transform15translate_point
FNDA:2,_RNvNtCskeUPLh1mzg6_11projgeom_rs9transform20projective_transform
FNDA:2,_RNvXs_NtCskeUPLh1mzg6_11projgeom_rs9transformNtB4_9TransformNtNtCs4TwWhthMkYr_4core7default7Default7default
FNDA:2,_RNvNtNtCskeUPLh1mzg6_11projgeom_rs9transform5testss_10test_shear
FNDA:2,_RNvNtNtCskeUPLh1mzg6_11projgeom_rs9transform5testss_12test_compose
FNDA:2,_RNvNtNtCskeUPLh1mzg6_11projgeom_rs9transform5testss_12test_default
FNDA:2,_RNvNtNtCskeUPLh1mzg6_11projgeom_rs9transform5testss_12test_inverse
FNDA:2,_RNvNtNtCskeUPLh1mzg6_11projgeom_rs9transform5testss_12test_scaling
FNDA:2,_RNvNtNtCskeUPLh1mzg6_11projgeom_rs9transform5testss_13test_identity
FNDA:2,_RNvNtNtCskeUPLh1mzg6_11projgeom_rs9transform5testss_15test_apply_line
FNDA:2,_RNvNtNtCskeUPLh1mzg6_11projgeom_rs9transform5testss_16test_scale_point
FNDA:2,_RNvNtNtCskeUPLh1mzg6_11projgeom_rs9transform5testss_16test_translation
FNDA:2,_RNvNtNtCskeUPLh1mzg6_11projgeom_rs9transform5testss_17test_rotate_point
FNDA:2,_RNvNtNtCskeUPLh1mzg6_11projgeom_rs9transform5testss_20test_inverse_scaling
FNDA:2,_RNvNtNtCskeUPLh1mzg6_11projgeom_rs9transform5testss_20test_translate_point
FNDA:2,_RNvNtNtCskeUPLh1mzg6_11projgeom_rs9transform5testss_21test_compose_identity
FNDA:2,_RNvNtNtCskeUPLh1mzg6_11projgeom_rs9transform5testss_21test_compose_multiple
FNDA:2,_RNvNtNtCskeUPLh1mzg6_11projgeom_rs9transform5testss_21test_inverse_rotation
FNDA:2,_RNvNtNtCskeUPLh1mzg6_11projgeom_rs9transform5testss_23test_scaling_fractional
FNDA:2,_RNvNtNtCskeUPLh1mzg6_11projgeom_rs9transform5testss_24test_apply_line_rotation
FNDA:2,_RNvNtNtCskeUPLh1mzg6_11projgeom_rs9transform5testss_24test_rotation_90_degrees
FNDA:2,_RNvNtNtCskeUPLh1mzg6_11projgeom_rs9transform5testss_25test_projective_transform
FNDA:2,_RNvNtNtCskeUPLh1mzg6_11projgeom_rs9transform5testss_25test_translation_negative
FNDA:2,_RNvNtNtCskeUPLh1mzg6_11projgeom_rs9transform5testss_26test_shear_both_directions
FNF:35
FNH:35
DA:18,22
DA:19,22
DA:20,22
DA:21,22
DA:22,22
DA:23,22
DA:24,22
DA:25,22
DA:26,22
DA:27,22
DA:28,22
DA:29,22
DA:30,22
DA:31,22
DA:32,22
DA:33,22
DA:34,22
DA:35,22
DA:36,22
DA:37,22
DA:38,22
DA:46,20
DA:47,20
DA:48,20
DA:49,20
DA:50,20
DA:51,20
DA:52,20
DA:53,20
DA:54,20
DA:55,20
DA:56,20
DA:57,20
DA:58,20
DA:59,20
DA:60,20
DA:61,20
DA:62,20
DA:63,20
DA:64,20
DA:65,20
DA:66,20
DA:74,8
DA:75,8
DA:76,8
DA:77,8
DA:78,8
DA:79,8
DA:80,8
DA:81,8
DA:82,8
DA:83,8
DA:84,8
DA:85,8
DA:86,8
DA:94,12
DA:95,12
DA:96,12
DA:97,12
DA:98,12
DA:99,12
DA:100,12
DA:101,12
DA:102,12
DA:103,12
DA:104,12
DA:105,12
DA:106,12
DA:114,4
DA:115,4
DA:116,4
DA:117,4
DA:118,4
DA:119,4
DA:120,4
DA:121,4
DA:122,4
DA:123,4
DA:124,4
DA:125,4
DA:126,4
DA:129,8
DA:130,8
DA:132,24
DA:133,72
DA:134,72
DA:135,216
DA:136,216
DA:137,216
DA:138,72
DA:142,8
DA:143,8
DA:146,42
DA:147,42
DA:148,42
DA:149,42
DA:151,42
DA:152,42
DA:153,42
DA:156,42
DA:157,42
DA:158,42
DA:159,42
DA:160,42
DA:161,42
DA:164,4
DA:166,4
DA:167,4
DA:168,4
DA:169,4
DA:171,4
DA:172,4
DA:173,4
DA:175,4
DA:176,4
DA:177,4
DA:178,4
DA:179,4
DA:180,4
DA:183,10
DA:185,10
DA:186,10
DA:187,10
DA:188,10
DA:189,10
DA:190,10
DA:191,10
DA:192,10
DA:193,10
DA:196,10
DA:198,10
DA:199,0
DA:200,10
DA:202,10
DA:205,10
DA:206,10
DA:207,10
DA:208,10
DA:209,10
DA:210,10
DA:211,10
DA:212,10
DA:213,10
DA:214,10
DA:215,10
DA:216,10
DA:217,10
DA:218,10
DA:219,10
DA:220,10
DA:221,10
DA:223,10
DA:224,10
DA:228,2
DA:229,2
DA:230,2
DA:240,2
DA:241,2
DA:242,2
DA:243,2
DA:244,2
DA:245,2
DA:246,2
DA:247,2
DA:256,2
DA:257,2
DA:258,2
DA:259,2
DA:268,2
DA:269,2
DA:270,2
DA:271,2
DA:286,2
DA:292,2
DA:293,2
DA:300,2
DA:301,2
DA:302,2
DA:303,2
DA:304,2
DA:305,2
DA:308,2
DA:309,2
DA:310,2
DA:311,2
DA:312,2
DA:313,2
DA:316,2
DA:318,2
DA:319,2
DA:320,2
DA:321,2
DA:322,2
DA:325,2
DA:326,2
DA:327,2
DA:328,2
DA:329,2
DA:330,2
DA:333,2
DA:334,2
DA:335,2
DA:336,2
DA:338,2
DA:339,2
DA:342,2
DA:343,2
DA:346,2
DA:347,2
DA:348,2
DA:349,2
DA:351,2
DA:352,2
DA:354,2
DA:355,2
DA:358,2
DA:359,2
DA:360,2
DA:361,2
DA:362,2
DA:363,2
DA:366,2
DA:367,2
DA:368,2
DA:369,2
DA:370,2
DA:371,2
DA:374,2
DA:375,2
DA:376,2
DA:377,2
DA:380,2
DA:381,2
DA:384,2
DA:385,2
DA:386,2
DA:387,2
DA:390,2
DA:391,2
DA:394,2
DA:395,2
DA:396,2
DA:397,2
DA:399,2
DA:400,2
DA:402,2
DA:403,2
DA:406,2
DA:407,2
DA:408,2
DA:409,2
DA:411,2
DA:412,2
DA:414,2
DA:415,2
DA:418,2
DA:419,2
DA:420,2
DA:421,2
DA:423,2
DA:424,2
DA:427,2
DA:428,2
DA:429,2
DA:430,2
DA:432,2
DA:433,2
DA:434,2
DA:438,2
DA:439,2
DA:442,2
DA:443,2
DA:444,2
DA:445,2
DA:446,2
DA:449,2
DA:450,2
DA:451,2
DA:452,2
DA:453,2
DA:456,2
DA:457,2
DA:458,2
DA:459,2
DA:460,2
DA:463,2
DA:464,2
DA:465,2
DA:466,2
DA:467,2
DA:468,2
DA:469,2
DA:471,2
DA:472,2
DA:473,2
DA:474,2
DA:475,2
DA:476,2
DA:478,2
DA:481,2
DA:482,2
DA:485,2
DA:486,2
DA:487,2
DA:488,2
DA:491,2
DA:492,2
DA:493,2
DA:494,2
DA:495,2
DA:496,2
DA:499,2
DA:500,2
DA:501,2
DA:502,2
DA:503,2
DA:504,2
BRF:0
BRH:0
LF:317
LH:316
end_of_record
SF:D:\github\rs\projgeom-rs\src\visualization.rs
FN:80,_RNvMNtCskeUPLh1mzg6_11projgeom_rs13visualizationNtB2_11SvgRenderer10draw_point
FN:213,_RNvMNtCskeUPLh1mzg6_11projgeom_rs13visualizationNtB2_11SvgRenderer11draw_circle
FN:155,_RNvMNtCskeUPLh1mzg6_11projgeom_rs13visualizationNtB2_11SvgRenderer12draw_segment
FN:181,_RNvMNtCskeUPLh1mzg6_11projgeom_rs13visualizationNtB2_11SvgRenderer13draw_triangle
FN:45,_RNvMNtCskeUPLh1mzg6_11projgeom_rs13visualizationNtB2_11SvgRenderer13to_svg_coords
FN:69,_RNvMNtCskeUPLh1mzg6_11projgeom_rs13visualizationNtB2_11SvgRenderer3end
FN:31,_RNvMNtCskeUPLh1mzg6_11projgeom_rs13visualizationNtB2_11SvgRenderer3new
FN:61,_RNvMNtCskeUPLh1mzg6_11projgeom_rs13visualizationNtB2_11SvgRenderer5start
FN:257,_RNvMNtCskeUPLh1mzg6_11projgeom_rs13visualizationNtB2_11SvgRenderer9draw_axes
FN:276,_RNvMNtCskeUPLh1mzg6_11projgeom_rs13visualizationNtB2_11SvgRenderer9draw_grid
FN:98,_RNvMNtCskeUPLh1mzg6_11projgeom_rs13visualizationNtB2_11SvgRenderer9draw_line
FN:240,_RNvMNtCskeUPLh1mzg6_11projgeom_rs13visualizationNtB2_11SvgRenderer9draw_text
FN:300,_RNvXs_NtCskeUPLh1mzg6_11projgeom_rs13visualizationNtB4_11SvgRendererNtNtCs4TwWhthMkYr_4core7default7Default7default
FN:372,_RNvNtNtCskeUPLh1mzg6_11projgeom_rs13visualization5testss_14test_draw_grid
FN:344,_RNvNtNtCskeUPLh1mzg6_11projgeom_rs13visualization5testss_14test_draw_line
FN:310,_RNvNtNtCskeUPLh1mzg6_11projgeom_rs13visualization5testss_17test_svg_renderer
FN:328,_RNvNtNtCskeUPLh1mzg6_11projgeom_rs13visualization5testss_18test_draw_triangle
FN:379,_RNvNtNtCskeUPLh1mzg6_11projgeom_rs13visualization5testss_22test_infinity_handling
FN:359,_RNvNtNtCskeUPLh1mzg6_11projgeom_rs13visualization5testss_25test_draw_circle_and_text
FNDA:4,_RNvMNtCskeUPLh1mzg6_11projgeom_rs13visualizationNtB2_11SvgRenderer10draw_point
FNDA:4,_RNvMNtCskeUPLh1mzg6_11projgeom_rs13visualizationNtB2_11SvgRenderer11draw_circle
FNDA:808,_RNvMNtCskeUPLh1mzg6_11projgeom_rs13visualizationNtB2_11SvgRenderer12draw_segment
FNDA:2,_RNvMNtCskeUPLh1mzg6_11projgeom_rs13visualizationNtB2_11SvgRenderer13draw_triangle
FNDA:1642,_RNvMNtCskeUPLh1mzg6_11projgeom_rs13visualizationNtB2_11SvgRenderer13to_svg_coords
FNDA:2,_RNvMNtCskeUPLh1mzg6_11projgeom_rs13visualizationNtB2_11SvgRenderer3end
FNDA:12,_RNvMNtCskeUPLh1mzg6_11projgeom_rs13visualizationNtB2_11SvgRenderer3new
FNDA:2,_RNvMNtCskeUPLh1mzg6_11projgeom_rs13visualizationNtB2_11SvgRenderer5start
FNDA:2,_RNvMNtCskeUPLh1mzg6_11projgeom_rs13visualizationNtB2_11SvgRenderer9draw_axes
FNDA:2,_RNvMNtCskeUPLh1mzg6_11projgeom_rs13visualizationNtB2_11SvgRenderer9draw_grid
FNDA:4,_RNvMNtCskeUPLh1mzg6_11projgeom_rs13visualizationNtB2_11SvgRenderer9draw_line
FNDA:4,_RNvMNtCskeUPLh1mzg6_11projgeom_rs13visualizationNtB2_11SvgRenderer9draw_text
FNDA:4,_RNvXs_NtCskeUPLh1mzg6_11projgeom_rs13visualizationNtB4_11SvgRendererNtNtCs4TwWhthMkYr_4core7default7Default7default
FNDA:2,_RNvNtNtCskeUPLh1mzg6_11projgeom_rs13visualization5testss_14test_draw_grid
FNDA:2,_RNvNtNtCskeUPLh1mzg6_11projgeom_rs13visualization5testss_14test_draw_line
FNDA:2,_RNvNtNtCskeUPLh1mzg6_11projgeom_rs13visualization5testss_17test_svg_renderer
FNDA:2,_RNvNtNtCskeUPLh1mzg6_11projgeom_rs13visualization5testss_18test_draw_triangle
FNDA:2,_RNvNtNtCskeUPLh1mzg6_11projgeom_rs13visualization5testss_22test_infinity_handling
FNDA:2,_RNvNtNtCskeUPLh1mzg6_11projgeom_rs13visualization5testss_25test_draw_circle_and_text
FNF:19
FNH:19
DA:31,12
DA:32,12
DA:33,12
DA:35,12
DA:36,12
DA:37,12
DA:38,12
DA:39,12
DA:40,12
DA:41,12
DA:42,12
DA:45,1642
DA:46,1642
DA:47,6
DA:48,1636
DA:50,1636
DA:51,1636
DA:54,1636
DA:55,1636
DA:57,1636
DA:58,1642
DA:61,2
DA:62,2
DA:66,2
DA:69,2
DA:70,2
DA:71,2
DA:80,4
DA:81,4
DA:82,2
DA:87,2
DA:89,4
DA:98,4
DA:100,4
DA:101,4
DA:102,4
DA:104,4
DA:106,2
DA:107,2
DA:108,2
DA:109,2
DA:111,2
DA:112,2
DA:114,2
DA:115,2
DA:117,2
DA:121,0
DA:122,0
DA:125,2
DA:126,2
DA:127,2
DA:128,2
DA:130,2
DA:131,2
DA:133,2
DA:134,2
DA:136,2
DA:140,0
DA:141,0
DA:144,0
DA:145,4
DA:155,808
DA:156,808
DA:157,808
DA:158,808
DA:159,808
DA:160,808
DA:161,808
DA:162,808
DA:163,808
DA:164,808
DA:168,0
DA:169,0
DA:170,0
DA:171,808
DA:181,2
DA:182,2
DA:183,2
DA:184,2
DA:185,2
DA:186,2
DA:187,2
DA:188,2
DA:190,6
DA:191,6
DA:192,6
DA:193,6
DA:194,0
DA:198,2
DA:202,2
DA:213,4
DA:214,4
DA:215,4
DA:216,4
DA:217,4
DA:218,4
DA:219,4
DA:220,4
DA:221,4
DA:222,2
DA:223,2
DA:228,2
DA:230,4
DA:240,4
DA:241,4
DA:242,2
DA:247,2
DA:249,4
DA:257,2
DA:258,2
DA:259,2
DA:260,2
DA:262,2
DA:263,2
DA:264,2
DA:266,2
DA:267,2
DA:276,2
DA:277,2
DA:280,402
DA:281,402
DA:282,402
DA:283,402
DA:284,402
DA:285,402
DA:288,402
DA:289,402
DA:290,402
DA:291,402
DA:292,402
DA:293,402
DA:295,2
DA:296,2
DA:300,4
DA:301,4
DA:302,4
DA:310,2
DA:311,2
DA:313,2
DA:315,2
DA:316,2
DA:317,2
DA:318,2
DA:321,2
DA:322,2
DA:323,2
DA:324,2
DA:325,2
DA:328,2
DA:329,2
DA:331,2
DA:332,2
DA:333,2
DA:334,2
DA:335,2
DA:337,2
DA:339,2
DA:340,2
DA:341,2
DA:344,2
DA:345,2
DA:348,2
DA:349,2
DA:350,2
DA:353,2
DA:354,2
DA:355,2
DA:356,2
DA:359,2
DA:360,2
DA:361,2
DA:363,2
DA:364,2
DA:366,2
DA:367,2
DA:368,2
DA:369,2
DA:372,2
DA:373,2
DA:374,2
DA:375,2
DA:376,2
DA:379,2
DA:380,2
DA:381,2
DA:383,2
DA:384,2
DA:385,2
DA:386,2
DA:389,2
BRF:0
BRH:0
LF:190
LH:181
end_of_record